
ctarget:     file format elf64-x86-64


Disassembly of section .init:

0000000000400c60 <_init>:
  400c60:	48 83 ec 08          	sub    $0x8,%rsp
  400c64:	48 8b 05 8d 33 20 00 	mov    0x20338d(%rip),%rax        # 603ff8 <_DYNAMIC+0x1d0>
  400c6b:	48 85 c0             	test   %rax,%rax
  400c6e:	74 05                	je     400c75 <_init+0x15>
  400c70:	e8 2b 01 00 00       	callq  400da0 <__gmon_start__@plt>
  400c75:	48 83 c4 08          	add    $0x8,%rsp
  400c79:	c3                   	retq   

Disassembly of section .plt:

0000000000400c80 <strcasecmp@plt-0x10>:
  400c80:	ff 35 82 33 20 00    	pushq  0x203382(%rip)        # 604008 <_GLOBAL_OFFSET_TABLE_+0x8>
  400c86:	ff 25 84 33 20 00    	jmpq   *0x203384(%rip)        # 604010 <_GLOBAL_OFFSET_TABLE_+0x10>
  400c8c:	0f 1f 40 00          	nopl   0x0(%rax)

0000000000400c90 <strcasecmp@plt>:
  400c90:	ff 25 82 33 20 00    	jmpq   *0x203382(%rip)        # 604018 <_GLOBAL_OFFSET_TABLE_+0x18>
  400c96:	68 00 00 00 00       	pushq  $0x0
  400c9b:	e9 e0 ff ff ff       	jmpq   400c80 <_init+0x20>

0000000000400ca0 <__errno_location@plt>:
  400ca0:	ff 25 7a 33 20 00    	jmpq   *0x20337a(%rip)        # 604020 <_GLOBAL_OFFSET_TABLE_+0x20>
  400ca6:	68 01 00 00 00       	pushq  $0x1
  400cab:	e9 d0 ff ff ff       	jmpq   400c80 <_init+0x20>

0000000000400cb0 <srandom@plt>:
  400cb0:	ff 25 72 33 20 00    	jmpq   *0x203372(%rip)        # 604028 <_GLOBAL_OFFSET_TABLE_+0x28>
  400cb6:	68 02 00 00 00       	pushq  $0x2
  400cbb:	e9 c0 ff ff ff       	jmpq   400c80 <_init+0x20>

0000000000400cc0 <strncmp@plt>:
  400cc0:	ff 25 6a 33 20 00    	jmpq   *0x20336a(%rip)        # 604030 <_GLOBAL_OFFSET_TABLE_+0x30>
  400cc6:	68 03 00 00 00       	pushq  $0x3
  400ccb:	e9 b0 ff ff ff       	jmpq   400c80 <_init+0x20>

0000000000400cd0 <strcpy@plt>:
  400cd0:	ff 25 62 33 20 00    	jmpq   *0x203362(%rip)        # 604038 <_GLOBAL_OFFSET_TABLE_+0x38>
  400cd6:	68 04 00 00 00       	pushq  $0x4
  400cdb:	e9 a0 ff ff ff       	jmpq   400c80 <_init+0x20>

0000000000400ce0 <puts@plt>:
  400ce0:	ff 25 5a 33 20 00    	jmpq   *0x20335a(%rip)        # 604040 <_GLOBAL_OFFSET_TABLE_+0x40>
  400ce6:	68 05 00 00 00       	pushq  $0x5
  400ceb:	e9 90 ff ff ff       	jmpq   400c80 <_init+0x20>

0000000000400cf0 <write@plt>:
  400cf0:	ff 25 52 33 20 00    	jmpq   *0x203352(%rip)        # 604048 <_GLOBAL_OFFSET_TABLE_+0x48>
  400cf6:	68 06 00 00 00       	pushq  $0x6
  400cfb:	e9 80 ff ff ff       	jmpq   400c80 <_init+0x20>

0000000000400d00 <__stack_chk_fail@plt>:
  400d00:	ff 25 4a 33 20 00    	jmpq   *0x20334a(%rip)        # 604050 <_GLOBAL_OFFSET_TABLE_+0x50>
  400d06:	68 07 00 00 00       	pushq  $0x7
  400d0b:	e9 70 ff ff ff       	jmpq   400c80 <_init+0x20>

0000000000400d10 <mmap@plt>:
  400d10:	ff 25 42 33 20 00    	jmpq   *0x203342(%rip)        # 604058 <_GLOBAL_OFFSET_TABLE_+0x58>
  400d16:	68 08 00 00 00       	pushq  $0x8
  400d1b:	e9 60 ff ff ff       	jmpq   400c80 <_init+0x20>

0000000000400d20 <memset@plt>:
  400d20:	ff 25 3a 33 20 00    	jmpq   *0x20333a(%rip)        # 604060 <_GLOBAL_OFFSET_TABLE_+0x60>
  400d26:	68 09 00 00 00       	pushq  $0x9
  400d2b:	e9 50 ff ff ff       	jmpq   400c80 <_init+0x20>

0000000000400d30 <alarm@plt>:
  400d30:	ff 25 32 33 20 00    	jmpq   *0x203332(%rip)        # 604068 <_GLOBAL_OFFSET_TABLE_+0x68>
  400d36:	68 0a 00 00 00       	pushq  $0xa
  400d3b:	e9 40 ff ff ff       	jmpq   400c80 <_init+0x20>

0000000000400d40 <close@plt>:
  400d40:	ff 25 2a 33 20 00    	jmpq   *0x20332a(%rip)        # 604070 <_GLOBAL_OFFSET_TABLE_+0x70>
  400d46:	68 0b 00 00 00       	pushq  $0xb
  400d4b:	e9 30 ff ff ff       	jmpq   400c80 <_init+0x20>

0000000000400d50 <read@plt>:
  400d50:	ff 25 22 33 20 00    	jmpq   *0x203322(%rip)        # 604078 <_GLOBAL_OFFSET_TABLE_+0x78>
  400d56:	68 0c 00 00 00       	pushq  $0xc
  400d5b:	e9 20 ff ff ff       	jmpq   400c80 <_init+0x20>

0000000000400d60 <__libc_start_main@plt>:
  400d60:	ff 25 1a 33 20 00    	jmpq   *0x20331a(%rip)        # 604080 <_GLOBAL_OFFSET_TABLE_+0x80>
  400d66:	68 0d 00 00 00       	pushq  $0xd
  400d6b:	e9 10 ff ff ff       	jmpq   400c80 <_init+0x20>

0000000000400d70 <signal@plt>:
  400d70:	ff 25 12 33 20 00    	jmpq   *0x203312(%rip)        # 604088 <_GLOBAL_OFFSET_TABLE_+0x88>
  400d76:	68 0e 00 00 00       	pushq  $0xe
  400d7b:	e9 00 ff ff ff       	jmpq   400c80 <_init+0x20>

0000000000400d80 <gethostbyname@plt>:
  400d80:	ff 25 0a 33 20 00    	jmpq   *0x20330a(%rip)        # 604090 <_GLOBAL_OFFSET_TABLE_+0x90>
  400d86:	68 0f 00 00 00       	pushq  $0xf
  400d8b:	e9 f0 fe ff ff       	jmpq   400c80 <_init+0x20>

0000000000400d90 <__memmove_chk@plt>:
  400d90:	ff 25 02 33 20 00    	jmpq   *0x203302(%rip)        # 604098 <_GLOBAL_OFFSET_TABLE_+0x98>
  400d96:	68 10 00 00 00       	pushq  $0x10
  400d9b:	e9 e0 fe ff ff       	jmpq   400c80 <_init+0x20>

0000000000400da0 <__gmon_start__@plt>:
  400da0:	ff 25 fa 32 20 00    	jmpq   *0x2032fa(%rip)        # 6040a0 <_GLOBAL_OFFSET_TABLE_+0xa0>
  400da6:	68 11 00 00 00       	pushq  $0x11
  400dab:	e9 d0 fe ff ff       	jmpq   400c80 <_init+0x20>

0000000000400db0 <strtol@plt>:
  400db0:	ff 25 f2 32 20 00    	jmpq   *0x2032f2(%rip)        # 6040a8 <_GLOBAL_OFFSET_TABLE_+0xa8>
  400db6:	68 12 00 00 00       	pushq  $0x12
  400dbb:	e9 c0 fe ff ff       	jmpq   400c80 <_init+0x20>

0000000000400dc0 <memcpy@plt>:
  400dc0:	ff 25 ea 32 20 00    	jmpq   *0x2032ea(%rip)        # 6040b0 <_GLOBAL_OFFSET_TABLE_+0xb0>
  400dc6:	68 13 00 00 00       	pushq  $0x13
  400dcb:	e9 b0 fe ff ff       	jmpq   400c80 <_init+0x20>

0000000000400dd0 <time@plt>:
  400dd0:	ff 25 e2 32 20 00    	jmpq   *0x2032e2(%rip)        # 6040b8 <_GLOBAL_OFFSET_TABLE_+0xb8>
  400dd6:	68 14 00 00 00       	pushq  $0x14
  400ddb:	e9 a0 fe ff ff       	jmpq   400c80 <_init+0x20>

0000000000400de0 <random@plt>:
  400de0:	ff 25 da 32 20 00    	jmpq   *0x2032da(%rip)        # 6040c0 <_GLOBAL_OFFSET_TABLE_+0xc0>
  400de6:	68 15 00 00 00       	pushq  $0x15
  400deb:	e9 90 fe ff ff       	jmpq   400c80 <_init+0x20>

0000000000400df0 <_IO_getc@plt>:
  400df0:	ff 25 d2 32 20 00    	jmpq   *0x2032d2(%rip)        # 6040c8 <_GLOBAL_OFFSET_TABLE_+0xc8>
  400df6:	68 16 00 00 00       	pushq  $0x16
  400dfb:	e9 80 fe ff ff       	jmpq   400c80 <_init+0x20>

0000000000400e00 <__isoc99_sscanf@plt>:
  400e00:	ff 25 ca 32 20 00    	jmpq   *0x2032ca(%rip)        # 6040d0 <_GLOBAL_OFFSET_TABLE_+0xd0>
  400e06:	68 17 00 00 00       	pushq  $0x17
  400e0b:	e9 70 fe ff ff       	jmpq   400c80 <_init+0x20>

0000000000400e10 <munmap@plt>:
  400e10:	ff 25 c2 32 20 00    	jmpq   *0x2032c2(%rip)        # 6040d8 <_GLOBAL_OFFSET_TABLE_+0xd8>
  400e16:	68 18 00 00 00       	pushq  $0x18
  400e1b:	e9 60 fe ff ff       	jmpq   400c80 <_init+0x20>

0000000000400e20 <__printf_chk@plt>:
  400e20:	ff 25 ba 32 20 00    	jmpq   *0x2032ba(%rip)        # 6040e0 <_GLOBAL_OFFSET_TABLE_+0xe0>
  400e26:	68 19 00 00 00       	pushq  $0x19
  400e2b:	e9 50 fe ff ff       	jmpq   400c80 <_init+0x20>

0000000000400e30 <fopen@plt>:
  400e30:	ff 25 b2 32 20 00    	jmpq   *0x2032b2(%rip)        # 6040e8 <_GLOBAL_OFFSET_TABLE_+0xe8>
  400e36:	68 1a 00 00 00       	pushq  $0x1a
  400e3b:	e9 40 fe ff ff       	jmpq   400c80 <_init+0x20>

0000000000400e40 <getopt@plt>:
  400e40:	ff 25 aa 32 20 00    	jmpq   *0x2032aa(%rip)        # 6040f0 <_GLOBAL_OFFSET_TABLE_+0xf0>
  400e46:	68 1b 00 00 00       	pushq  $0x1b
  400e4b:	e9 30 fe ff ff       	jmpq   400c80 <_init+0x20>

0000000000400e50 <strtoul@plt>:
  400e50:	ff 25 a2 32 20 00    	jmpq   *0x2032a2(%rip)        # 6040f8 <_GLOBAL_OFFSET_TABLE_+0xf8>
  400e56:	68 1c 00 00 00       	pushq  $0x1c
  400e5b:	e9 20 fe ff ff       	jmpq   400c80 <_init+0x20>

0000000000400e60 <gethostname@plt>:
  400e60:	ff 25 9a 32 20 00    	jmpq   *0x20329a(%rip)        # 604100 <_GLOBAL_OFFSET_TABLE_+0x100>
  400e66:	68 1d 00 00 00       	pushq  $0x1d
  400e6b:	e9 10 fe ff ff       	jmpq   400c80 <_init+0x20>

0000000000400e70 <exit@plt>:
  400e70:	ff 25 92 32 20 00    	jmpq   *0x203292(%rip)        # 604108 <_GLOBAL_OFFSET_TABLE_+0x108>
  400e76:	68 1e 00 00 00       	pushq  $0x1e
  400e7b:	e9 00 fe ff ff       	jmpq   400c80 <_init+0x20>

0000000000400e80 <connect@plt>:
  400e80:	ff 25 8a 32 20 00    	jmpq   *0x20328a(%rip)        # 604110 <_GLOBAL_OFFSET_TABLE_+0x110>
  400e86:	68 1f 00 00 00       	pushq  $0x1f
  400e8b:	e9 f0 fd ff ff       	jmpq   400c80 <_init+0x20>

0000000000400e90 <__fprintf_chk@plt>:
  400e90:	ff 25 82 32 20 00    	jmpq   *0x203282(%rip)        # 604118 <_GLOBAL_OFFSET_TABLE_+0x118>
  400e96:	68 20 00 00 00       	pushq  $0x20
  400e9b:	e9 e0 fd ff ff       	jmpq   400c80 <_init+0x20>

0000000000400ea0 <__sprintf_chk@plt>:
  400ea0:	ff 25 7a 32 20 00    	jmpq   *0x20327a(%rip)        # 604120 <_GLOBAL_OFFSET_TABLE_+0x120>
  400ea6:	68 21 00 00 00       	pushq  $0x21
  400eab:	e9 d0 fd ff ff       	jmpq   400c80 <_init+0x20>

0000000000400eb0 <socket@plt>:
  400eb0:	ff 25 72 32 20 00    	jmpq   *0x203272(%rip)        # 604128 <_GLOBAL_OFFSET_TABLE_+0x128>
  400eb6:	68 22 00 00 00       	pushq  $0x22
  400ebb:	e9 c0 fd ff ff       	jmpq   400c80 <_init+0x20>

Disassembly of section .text:

0000000000400ec0 <_start>:
  400ec0:	31 ed                	xor    %ebp,%ebp
  400ec2:	49 89 d1             	mov    %rdx,%r9
  400ec5:	5e                   	pop    %rsi
  400ec6:	48 89 e2             	mov    %rsp,%rdx
  400ec9:	48 83 e4 f0          	and    $0xfffffffffffffff0,%rsp
  400ecd:	50                   	push   %rax
  400ece:	54                   	push   %rsp
  400ecf:	49 c7 c0 50 2e 40 00 	mov    $0x402e50,%r8
  400ed6:	48 c7 c1 e0 2d 40 00 	mov    $0x402de0,%rcx
  400edd:	48 c7 c7 dc 11 40 00 	mov    $0x4011dc,%rdi
  400ee4:	e8 77 fe ff ff       	callq  400d60 <__libc_start_main@plt>
  400ee9:	f4                   	hlt    
  400eea:	66 0f 1f 44 00 00    	nopw   0x0(%rax,%rax,1)

0000000000400ef0 <deregister_tm_clones>:
  400ef0:	b8 b7 44 60 00       	mov    $0x6044b7,%eax
  400ef5:	55                   	push   %rbp
  400ef6:	48 2d b0 44 60 00    	sub    $0x6044b0,%rax
  400efc:	48 83 f8 0e          	cmp    $0xe,%rax
  400f00:	48 89 e5             	mov    %rsp,%rbp
  400f03:	77 02                	ja     400f07 <deregister_tm_clones+0x17>
  400f05:	5d                   	pop    %rbp
  400f06:	c3                   	retq   
  400f07:	b8 00 00 00 00       	mov    $0x0,%eax
  400f0c:	48 85 c0             	test   %rax,%rax
  400f0f:	74 f4                	je     400f05 <deregister_tm_clones+0x15>
  400f11:	5d                   	pop    %rbp
  400f12:	bf b0 44 60 00       	mov    $0x6044b0,%edi
  400f17:	ff e0                	jmpq   *%rax
  400f19:	0f 1f 80 00 00 00 00 	nopl   0x0(%rax)

0000000000400f20 <register_tm_clones>:
  400f20:	b8 b0 44 60 00       	mov    $0x6044b0,%eax
  400f25:	55                   	push   %rbp
  400f26:	48 2d b0 44 60 00    	sub    $0x6044b0,%rax
  400f2c:	48 c1 f8 03          	sar    $0x3,%rax
  400f30:	48 89 e5             	mov    %rsp,%rbp
  400f33:	48 89 c2             	mov    %rax,%rdx
  400f36:	48 c1 ea 3f          	shr    $0x3f,%rdx
  400f3a:	48 01 d0             	add    %rdx,%rax
  400f3d:	48 d1 f8             	sar    %rax
  400f40:	75 02                	jne    400f44 <register_tm_clones+0x24>
  400f42:	5d                   	pop    %rbp
  400f43:	c3                   	retq   
  400f44:	ba 00 00 00 00       	mov    $0x0,%edx
  400f49:	48 85 d2             	test   %rdx,%rdx
  400f4c:	74 f4                	je     400f42 <register_tm_clones+0x22>
  400f4e:	5d                   	pop    %rbp
  400f4f:	48 89 c6             	mov    %rax,%rsi
  400f52:	bf b0 44 60 00       	mov    $0x6044b0,%edi
  400f57:	ff e2                	jmpq   *%rdx
  400f59:	0f 1f 80 00 00 00 00 	nopl   0x0(%rax)

0000000000400f60 <__do_global_dtors_aux>:
  400f60:	80 3d 89 35 20 00 00 	cmpb   $0x0,0x203589(%rip)        # 6044f0 <completed.6973>
  400f67:	75 11                	jne    400f7a <__do_global_dtors_aux+0x1a>
  400f69:	55                   	push   %rbp
  400f6a:	48 89 e5             	mov    %rsp,%rbp
  400f6d:	e8 7e ff ff ff       	callq  400ef0 <deregister_tm_clones>
  400f72:	5d                   	pop    %rbp
  400f73:	c6 05 76 35 20 00 01 	movb   $0x1,0x203576(%rip)        # 6044f0 <completed.6973>
  400f7a:	f3 c3                	repz retq 
  400f7c:	0f 1f 40 00          	nopl   0x0(%rax)

0000000000400f80 <frame_dummy>:
  400f80:	48 83 3d 98 2e 20 00 	cmpq   $0x0,0x202e98(%rip)        # 603e20 <__JCR_END__>
  400f87:	00 
  400f88:	74 1e                	je     400fa8 <frame_dummy+0x28>
  400f8a:	b8 00 00 00 00       	mov    $0x0,%eax
  400f8f:	48 85 c0             	test   %rax,%rax
  400f92:	74 14                	je     400fa8 <frame_dummy+0x28>
  400f94:	55                   	push   %rbp
  400f95:	bf 20 3e 60 00       	mov    $0x603e20,%edi
  400f9a:	48 89 e5             	mov    %rsp,%rbp
  400f9d:	ff d0                	callq  *%rax
  400f9f:	5d                   	pop    %rbp
  400fa0:	e9 7b ff ff ff       	jmpq   400f20 <register_tm_clones>
  400fa5:	0f 1f 00             	nopl   (%rax)
  400fa8:	e9 73 ff ff ff       	jmpq   400f20 <register_tm_clones>
  400fad:	0f 1f 00             	nopl   (%rax)

0000000000400fb0 <usage>:
  400fb0:	48 83 ec 08          	sub    $0x8,%rsp
  400fb4:	48 89 fa             	mov    %rdi,%rdx
  400fb7:	83 3d 6a 35 20 00 00 	cmpl   $0x0,0x20356a(%rip)        # 604528 <is_checker>
  400fbe:	74 3e                	je     400ffe <usage+0x4e>
  400fc0:	be 68 2e 40 00       	mov    $0x402e68,%esi
  400fc5:	bf 01 00 00 00       	mov    $0x1,%edi
  400fca:	b8 00 00 00 00       	mov    $0x0,%eax
  400fcf:	e8 4c fe ff ff       	callq  400e20 <__printf_chk@plt>
  400fd4:	bf a0 2e 40 00       	mov    $0x402ea0,%edi
  400fd9:	e8 02 fd ff ff       	callq  400ce0 <puts@plt>
  400fde:	bf 18 30 40 00       	mov    $0x403018,%edi
  400fe3:	e8 f8 fc ff ff       	callq  400ce0 <puts@plt>
  400fe8:	bf c8 2e 40 00       	mov    $0x402ec8,%edi
  400fed:	e8 ee fc ff ff       	callq  400ce0 <puts@plt>
  400ff2:	bf 32 30 40 00       	mov    $0x403032,%edi
  400ff7:	e8 e4 fc ff ff       	callq  400ce0 <puts@plt>
  400ffc:	eb 32                	jmp    401030 <usage+0x80>
  400ffe:	be 4e 30 40 00       	mov    $0x40304e,%esi
  401003:	bf 01 00 00 00       	mov    $0x1,%edi
  401008:	b8 00 00 00 00       	mov    $0x0,%eax
  40100d:	e8 0e fe ff ff       	callq  400e20 <__printf_chk@plt>
  401012:	bf f0 2e 40 00       	mov    $0x402ef0,%edi
  401017:	e8 c4 fc ff ff       	callq  400ce0 <puts@plt>
  40101c:	bf 18 2f 40 00       	mov    $0x402f18,%edi
  401021:	e8 ba fc ff ff       	callq  400ce0 <puts@plt>
  401026:	bf 6c 30 40 00       	mov    $0x40306c,%edi
  40102b:	e8 b0 fc ff ff       	callq  400ce0 <puts@plt>
  401030:	bf 00 00 00 00       	mov    $0x0,%edi
  401035:	e8 36 fe ff ff       	callq  400e70 <exit@plt>

000000000040103a <initialize_target>:
  40103a:	55                   	push   %rbp
  40103b:	53                   	push   %rbx
  40103c:	48 81 ec 18 21 00 00 	sub    $0x2118,%rsp
  401043:	89 f5                	mov    %esi,%ebp
  401045:	64 48 8b 04 25 28 00 	mov    %fs:0x28,%rax
  40104c:	00 00 
  40104e:	48 89 84 24 08 21 00 	mov    %rax,0x2108(%rsp)
  401055:	00 
  401056:	31 c0                	xor    %eax,%eax
  401058:	89 3d ba 34 20 00    	mov    %edi,0x2034ba(%rip)        # 604518 <check_level>
  40105e:	8b 3d 04 31 20 00    	mov    0x203104(%rip),%edi        # 604168 <target_id>
  401064:	e8 4a 1d 00 00       	callq  402db3 <gencookie>
  401069:	89 05 b5 34 20 00    	mov    %eax,0x2034b5(%rip)        # 604524 <cookie>
  40106f:	89 c7                	mov    %eax,%edi
  401071:	e8 3d 1d 00 00       	callq  402db3 <gencookie>
  401076:	89 05 a4 34 20 00    	mov    %eax,0x2034a4(%rip)        # 604520 <authkey>
  40107c:	8b 05 e6 30 20 00    	mov    0x2030e6(%rip),%eax        # 604168 <target_id>
  401082:	8d 78 01             	lea    0x1(%rax),%edi
  401085:	e8 26 fc ff ff       	callq  400cb0 <srandom@plt>
  40108a:	e8 51 fd ff ff       	callq  400de0 <random@plt>
  40108f:	89 c7                	mov    %eax,%edi
  401091:	e8 20 03 00 00       	callq  4013b6 <scramble>
  401096:	89 c3                	mov    %eax,%ebx
  401098:	85 ed                	test   %ebp,%ebp
  40109a:	74 18                	je     4010b4 <initialize_target+0x7a>
  40109c:	bf 00 00 00 00       	mov    $0x0,%edi
  4010a1:	e8 2a fd ff ff       	callq  400dd0 <time@plt>
  4010a6:	89 c7                	mov    %eax,%edi
  4010a8:	e8 03 fc ff ff       	callq  400cb0 <srandom@plt>
  4010ad:	e8 2e fd ff ff       	callq  400de0 <random@plt>
  4010b2:	eb 05                	jmp    4010b9 <initialize_target+0x7f>
  4010b4:	b8 00 00 00 00       	mov    $0x0,%eax
  4010b9:	01 c3                	add    %eax,%ebx
  4010bb:	0f b7 db             	movzwl %bx,%ebx
  4010be:	8d 04 dd 00 01 00 00 	lea    0x100(,%rbx,8),%eax
  4010c5:	89 c0                	mov    %eax,%eax
  4010c7:	48 89 05 d2 33 20 00 	mov    %rax,0x2033d2(%rip)        # 6044a0 <buf_offset>
  4010ce:	c6 05 73 40 20 00 63 	movb   $0x63,0x204073(%rip)        # 605148 <target_prefix>
  4010d5:	83 3d cc 33 20 00 00 	cmpl   $0x0,0x2033cc(%rip)        # 6044a8 <notify>
  4010dc:	0f 84 d8 00 00 00    	je     4011ba <initialize_target+0x180>
  4010e2:	83 3d 3f 34 20 00 00 	cmpl   $0x0,0x20343f(%rip)        # 604528 <is_checker>
  4010e9:	0f 85 cb 00 00 00    	jne    4011ba <initialize_target+0x180>
  4010ef:	be 00 01 00 00       	mov    $0x100,%esi
  4010f4:	48 89 e7             	mov    %rsp,%rdi
  4010f7:	e8 64 fd ff ff       	callq  400e60 <gethostname@plt>
  4010fc:	85 c0                	test   %eax,%eax
  4010fe:	74 25                	je     401125 <initialize_target+0xeb>
  401100:	bf 48 2f 40 00       	mov    $0x402f48,%edi
  401105:	e8 d6 fb ff ff       	callq  400ce0 <puts@plt>
  40110a:	bf 08 00 00 00       	mov    $0x8,%edi
  40110f:	e8 5c fd ff ff       	callq  400e70 <exit@plt>
  401114:	48 89 e6             	mov    %rsp,%rsi
  401117:	e8 74 fb ff ff       	callq  400c90 <strcasecmp@plt>
  40111c:	85 c0                	test   %eax,%eax
  40111e:	74 21                	je     401141 <initialize_target+0x107>
  401120:	83 c3 01             	add    $0x1,%ebx
  401123:	eb 05                	jmp    40112a <initialize_target+0xf0>
  401125:	bb 00 00 00 00       	mov    $0x0,%ebx
  40112a:	48 63 c3             	movslq %ebx,%rax
  40112d:	48 8b 3c c5 80 41 60 	mov    0x604180(,%rax,8),%rdi
  401134:	00 
  401135:	48 85 ff             	test   %rdi,%rdi
  401138:	75 da                	jne    401114 <initialize_target+0xda>
  40113a:	bb 00 00 00 00       	mov    $0x0,%ebx
  40113f:	eb 05                	jmp    401146 <initialize_target+0x10c>
  401141:	bb 01 00 00 00       	mov    $0x1,%ebx
  401146:	48 8b 35 13 30 20 00 	mov    0x203013(%rip),%rsi        # 604160 <user_id>
  40114d:	48 89 e7             	mov    %rsp,%rdi
  401150:	e8 3b fb ff ff       	callq  400c90 <strcasecmp@plt>
  401155:	85 c0                	test   %eax,%eax
  401157:	75 05                	jne    40115e <initialize_target+0x124>
  401159:	bb 01 00 00 00       	mov    $0x1,%ebx
  40115e:	85 db                	test   %ebx,%ebx
  401160:	75 21                	jne    401183 <initialize_target+0x149>
  401162:	48 89 e2             	mov    %rsp,%rdx
  401165:	be 80 2f 40 00       	mov    $0x402f80,%esi
  40116a:	bf 01 00 00 00       	mov    $0x1,%edi
  40116f:	b8 00 00 00 00       	mov    $0x0,%eax
  401174:	e8 a7 fc ff ff       	callq  400e20 <__printf_chk@plt>
  401179:	bf 08 00 00 00       	mov    $0x8,%edi
  40117e:	e8 ed fc ff ff       	callq  400e70 <exit@plt>
  401183:	48 8d bc 24 00 01 00 	lea    0x100(%rsp),%rdi
  40118a:	00 
  40118b:	e8 8b 19 00 00       	callq  402b1b <init_driver>
  401190:	85 c0                	test   %eax,%eax
  401192:	79 26                	jns    4011ba <initialize_target+0x180>
  401194:	48 8d 94 24 00 01 00 	lea    0x100(%rsp),%rdx
  40119b:	00 
  40119c:	be c0 2f 40 00       	mov    $0x402fc0,%esi
  4011a1:	bf 01 00 00 00       	mov    $0x1,%edi
  4011a6:	b8 00 00 00 00       	mov    $0x0,%eax
  4011ab:	e8 70 fc ff ff       	callq  400e20 <__printf_chk@plt>
  4011b0:	bf 08 00 00 00       	mov    $0x8,%edi
  4011b5:	e8 b6 fc ff ff       	callq  400e70 <exit@plt>
  4011ba:	48 8b 84 24 08 21 00 	mov    0x2108(%rsp),%rax
  4011c1:	00 
  4011c2:	64 48 33 04 25 28 00 	xor    %fs:0x28,%rax
  4011c9:	00 00 
  4011cb:	74 05                	je     4011d2 <initialize_target+0x198>
  4011cd:	e8 2e fb ff ff       	callq  400d00 <__stack_chk_fail@plt>
  4011d2:	48 81 c4 18 21 00 00 	add    $0x2118,%rsp
  4011d9:	5b                   	pop    %rbx
  4011da:	5d                   	pop    %rbp
  4011db:	c3                   	retq   

00000000004011dc <main>:
  4011dc:	41 56                	push   %r14
  4011de:	41 55                	push   %r13
  4011e0:	41 54                	push   %r12
  4011e2:	55                   	push   %rbp
  4011e3:	53                   	push   %rbx
  4011e4:	41 89 fc             	mov    %edi,%r12d
  4011e7:	48 89 f3             	mov    %rsi,%rbx
  4011ea:	be 8e 1e 40 00       	mov    $0x401e8e,%esi
  4011ef:	bf 0b 00 00 00       	mov    $0xb,%edi
  4011f4:	e8 77 fb ff ff       	callq  400d70 <signal@plt>
  4011f9:	be 40 1e 40 00       	mov    $0x401e40,%esi
  4011fe:	bf 07 00 00 00       	mov    $0x7,%edi
  401203:	e8 68 fb ff ff       	callq  400d70 <signal@plt>
  401208:	be dc 1e 40 00       	mov    $0x401edc,%esi
  40120d:	bf 04 00 00 00       	mov    $0x4,%edi
  401212:	e8 59 fb ff ff       	callq  400d70 <signal@plt>
  401217:	83 3d 0a 33 20 00 00 	cmpl   $0x0,0x20330a(%rip)        # 604528 <is_checker>
  40121e:	74 20                	je     401240 <main+0x64>
  401220:	be 2a 1f 40 00       	mov    $0x401f2a,%esi
  401225:	bf 0e 00 00 00       	mov    $0xe,%edi
  40122a:	e8 41 fb ff ff       	callq  400d70 <signal@plt>
  40122f:	bf 05 00 00 00       	mov    $0x5,%edi
  401234:	e8 f7 fa ff ff       	callq  400d30 <alarm@plt>
  401239:	bd 8a 30 40 00       	mov    $0x40308a,%ebp
  40123e:	eb 05                	jmp    401245 <main+0x69>
  401240:	bd 85 30 40 00       	mov    $0x403085,%ebp
  401245:	48 8b 05 74 32 20 00 	mov    0x203274(%rip),%rax        # 6044c0 <stdin@@GLIBC_2.2.5>
  40124c:	48 89 05 bd 32 20 00 	mov    %rax,0x2032bd(%rip)        # 604510 <infile>
  401253:	41 bd 00 00 00 00    	mov    $0x0,%r13d
  401259:	41 be 00 00 00 00    	mov    $0x0,%r14d
  40125f:	e9 c6 00 00 00       	jmpq   40132a <main+0x14e>
  401264:	83 e8 61             	sub    $0x61,%eax
  401267:	3c 10                	cmp    $0x10,%al
  401269:	0f 87 9c 00 00 00    	ja     40130b <main+0x12f>
  40126f:	0f b6 c0             	movzbl %al,%eax
  401272:	ff 24 c5 d0 30 40 00 	jmpq   *0x4030d0(,%rax,8)
  401279:	48 8b 3b             	mov    (%rbx),%rdi
  40127c:	e8 2f fd ff ff       	callq  400fb0 <usage>
  401281:	be 35 33 40 00       	mov    $0x403335,%esi
  401286:	48 8b 3d 53 32 20 00 	mov    0x203253(%rip),%rdi        # 6044e0 <optarg@@GLIBC_2.2.5>
  40128d:	e8 9e fb ff ff       	callq  400e30 <fopen@plt>
  401292:	48 89 05 77 32 20 00 	mov    %rax,0x203277(%rip)        # 604510 <infile>
  401299:	48 85 c0             	test   %rax,%rax
  40129c:	0f 85 88 00 00 00    	jne    40132a <main+0x14e>
  4012a2:	48 8b 0d 37 32 20 00 	mov    0x203237(%rip),%rcx        # 6044e0 <optarg@@GLIBC_2.2.5>
  4012a9:	ba 92 30 40 00       	mov    $0x403092,%edx
  4012ae:	be 01 00 00 00       	mov    $0x1,%esi
  4012b3:	48 8b 3d 2e 32 20 00 	mov    0x20322e(%rip),%rdi        # 6044e8 <stderr@@GLIBC_2.2.5>
  4012ba:	e8 d1 fb ff ff       	callq  400e90 <__fprintf_chk@plt>
  4012bf:	b8 01 00 00 00       	mov    $0x1,%eax
  4012c4:	e9 e4 00 00 00       	jmpq   4013ad <main+0x1d1>
  4012c9:	ba 10 00 00 00       	mov    $0x10,%edx
  4012ce:	be 00 00 00 00       	mov    $0x0,%esi
  4012d3:	48 8b 3d 06 32 20 00 	mov    0x203206(%rip),%rdi        # 6044e0 <optarg@@GLIBC_2.2.5>
  4012da:	e8 71 fb ff ff       	callq  400e50 <strtoul@plt>
  4012df:	41 89 c6             	mov    %eax,%r14d
  4012e2:	eb 46                	jmp    40132a <main+0x14e>
  4012e4:	ba 0a 00 00 00       	mov    $0xa,%edx
  4012e9:	be 00 00 00 00       	mov    $0x0,%esi
  4012ee:	48 8b 3d eb 31 20 00 	mov    0x2031eb(%rip),%rdi        # 6044e0 <optarg@@GLIBC_2.2.5>
  4012f5:	e8 b6 fa ff ff       	callq  400db0 <strtol@plt>
  4012fa:	41 89 c5             	mov    %eax,%r13d
  4012fd:	eb 2b                	jmp    40132a <main+0x14e>
  4012ff:	c7 05 9f 31 20 00 00 	movl   $0x0,0x20319f(%rip)        # 6044a8 <notify>
  401306:	00 00 00 
  401309:	eb 1f                	jmp    40132a <main+0x14e>
  40130b:	0f be d2             	movsbl %dl,%edx
  40130e:	be af 30 40 00       	mov    $0x4030af,%esi
  401313:	bf 01 00 00 00       	mov    $0x1,%edi
  401318:	b8 00 00 00 00       	mov    $0x0,%eax
  40131d:	e8 fe fa ff ff       	callq  400e20 <__printf_chk@plt>
  401322:	48 8b 3b             	mov    (%rbx),%rdi
  401325:	e8 86 fc ff ff       	callq  400fb0 <usage>
  40132a:	48 89 ea             	mov    %rbp,%rdx
  40132d:	48 89 de             	mov    %rbx,%rsi
  401330:	44 89 e7             	mov    %r12d,%edi
  401333:	e8 08 fb ff ff       	callq  400e40 <getopt@plt>
  401338:	89 c2                	mov    %eax,%edx
  40133a:	3c ff                	cmp    $0xff,%al
  40133c:	0f 85 22 ff ff ff    	jne    401264 <main+0x88>
  401342:	be 00 00 00 00       	mov    $0x0,%esi
  401347:	44 89 ef             	mov    %r13d,%edi
  40134a:	e8 eb fc ff ff       	callq  40103a <initialize_target>
  40134f:	83 3d d2 31 20 00 00 	cmpl   $0x0,0x2031d2(%rip)        # 604528 <is_checker>
  401356:	74 2a                	je     401382 <main+0x1a6>
  401358:	44 3b 35 c1 31 20 00 	cmp    0x2031c1(%rip),%r14d        # 604520 <authkey>
  40135f:	74 21                	je     401382 <main+0x1a6>
  401361:	44 89 f2             	mov    %r14d,%edx
  401364:	be e8 2f 40 00       	mov    $0x402fe8,%esi
  401369:	bf 01 00 00 00       	mov    $0x1,%edi
  40136e:	b8 00 00 00 00       	mov    $0x0,%eax
  401373:	e8 a8 fa ff ff       	callq  400e20 <__printf_chk@plt>
  401378:	b8 00 00 00 00       	mov    $0x0,%eax
  40137d:	e8 49 07 00 00       	callq  401acb <check_fail>
  401382:	8b 15 9c 31 20 00    	mov    0x20319c(%rip),%edx        # 604524 <cookie>
  401388:	be c2 30 40 00       	mov    $0x4030c2,%esi
  40138d:	bf 01 00 00 00       	mov    $0x1,%edi
  401392:	b8 00 00 00 00       	mov    $0x0,%eax
  401397:	e8 84 fa ff ff       	callq  400e20 <__printf_chk@plt>
  40139c:	48 8b 3d fd 30 20 00 	mov    0x2030fd(%rip),%rdi        # 6044a0 <buf_offset>
  4013a3:	e8 82 0c 00 00       	callq  40202a <stable_launch>
  4013a8:	b8 00 00 00 00       	mov    $0x0,%eax
  4013ad:	5b                   	pop    %rbx
  4013ae:	5d                   	pop    %rbp
  4013af:	41 5c                	pop    %r12
  4013b1:	41 5d                	pop    %r13
  4013b3:	41 5e                	pop    %r14
  4013b5:	c3                   	retq   

00000000004013b6 <scramble>:
  4013b6:	b8 00 00 00 00       	mov    $0x0,%eax
  4013bb:	eb 11                	jmp    4013ce <scramble+0x18>
  4013bd:	69 c8 09 b7 00 00    	imul   $0xb709,%eax,%ecx
  4013c3:	01 f9                	add    %edi,%ecx
  4013c5:	89 c2                	mov    %eax,%edx
  4013c7:	89 4c 94 c8          	mov    %ecx,-0x38(%rsp,%rdx,4)
  4013cb:	83 c0 01             	add    $0x1,%eax
  4013ce:	83 f8 09             	cmp    $0x9,%eax
  4013d1:	76 ea                	jbe    4013bd <scramble+0x7>
  4013d3:	8b 44 24 e8          	mov    -0x18(%rsp),%eax
  4013d7:	69 c0 08 36 00 00    	imul   $0x3608,%eax,%eax
  4013dd:	89 44 24 e8          	mov    %eax,-0x18(%rsp)
  4013e1:	8b 44 24 e4          	mov    -0x1c(%rsp),%eax
  4013e5:	69 c0 8c 5d 00 00    	imul   $0x5d8c,%eax,%eax
  4013eb:	89 44 24 e4          	mov    %eax,-0x1c(%rsp)
  4013ef:	8b 44 24 dc          	mov    -0x24(%rsp),%eax
  4013f3:	69 c0 b6 68 00 00    	imul   $0x68b6,%eax,%eax
  4013f9:	89 44 24 dc          	mov    %eax,-0x24(%rsp)
  4013fd:	8b 44 24 e8          	mov    -0x18(%rsp),%eax
  401401:	69 c0 11 f5 00 00    	imul   $0xf511,%eax,%eax
  401407:	89 44 24 e8          	mov    %eax,-0x18(%rsp)
  40140b:	8b 44 24 dc          	mov    -0x24(%rsp),%eax
  40140f:	69 c0 64 0a 00 00    	imul   $0xa64,%eax,%eax
  401415:	89 44 24 dc          	mov    %eax,-0x24(%rsp)
  401419:	8b 44 24 e8          	mov    -0x18(%rsp),%eax
  40141d:	69 c0 c9 5d 00 00    	imul   $0x5dc9,%eax,%eax
  401423:	89 44 24 e8          	mov    %eax,-0x18(%rsp)
  401427:	8b 44 24 dc          	mov    -0x24(%rsp),%eax
  40142b:	69 c0 fd 0c 00 00    	imul   $0xcfd,%eax,%eax
  401431:	89 44 24 dc          	mov    %eax,-0x24(%rsp)
  401435:	8b 44 24 c8          	mov    -0x38(%rsp),%eax
  401439:	69 c0 00 73 00 00    	imul   $0x7300,%eax,%eax
  40143f:	89 44 24 c8          	mov    %eax,-0x38(%rsp)
  401443:	8b 44 24 e8          	mov    -0x18(%rsp),%eax
  401447:	69 c0 0b 6a 00 00    	imul   $0x6a0b,%eax,%eax
  40144d:	89 44 24 e8          	mov    %eax,-0x18(%rsp)
  401451:	8b 44 24 e4          	mov    -0x1c(%rsp),%eax
  401455:	69 c0 63 d6 00 00    	imul   $0xd663,%eax,%eax
  40145b:	89 44 24 e4          	mov    %eax,-0x1c(%rsp)
  40145f:	8b 44 24 dc          	mov    -0x24(%rsp),%eax
  401463:	69 c0 dd 10 00 00    	imul   $0x10dd,%eax,%eax
  401469:	89 44 24 dc          	mov    %eax,-0x24(%rsp)
  40146d:	8b 44 24 e8          	mov    -0x18(%rsp),%eax
  401471:	69 c0 0a a4 00 00    	imul   $0xa40a,%eax,%eax
  401477:	89 44 24 e8          	mov    %eax,-0x18(%rsp)
  40147b:	8b 44 24 cc          	mov    -0x34(%rsp),%eax
  40147f:	69 c0 b2 46 00 00    	imul   $0x46b2,%eax,%eax
  401485:	89 44 24 cc          	mov    %eax,-0x34(%rsp)
  401489:	8b 44 24 e8          	mov    -0x18(%rsp),%eax
  40148d:	69 c0 47 74 00 00    	imul   $0x7447,%eax,%eax
  401493:	89 44 24 e8          	mov    %eax,-0x18(%rsp)
  401497:	8b 44 24 dc          	mov    -0x24(%rsp),%eax
  40149b:	69 c0 55 7f 00 00    	imul   $0x7f55,%eax,%eax
  4014a1:	89 44 24 dc          	mov    %eax,-0x24(%rsp)
  4014a5:	8b 44 24 ec          	mov    -0x14(%rsp),%eax
  4014a9:	69 c0 b4 9c 00 00    	imul   $0x9cb4,%eax,%eax
  4014af:	89 44 24 ec          	mov    %eax,-0x14(%rsp)
  4014b3:	8b 44 24 d0          	mov    -0x30(%rsp),%eax
  4014b7:	69 c0 03 07 00 00    	imul   $0x703,%eax,%eax
  4014bd:	89 44 24 d0          	mov    %eax,-0x30(%rsp)
  4014c1:	8b 44 24 dc          	mov    -0x24(%rsp),%eax
  4014c5:	69 c0 3a af 00 00    	imul   $0xaf3a,%eax,%eax
  4014cb:	89 44 24 dc          	mov    %eax,-0x24(%rsp)
  4014cf:	8b 44 24 d8          	mov    -0x28(%rsp),%eax
  4014d3:	69 c0 b1 c9 00 00    	imul   $0xc9b1,%eax,%eax
  4014d9:	89 44 24 d8          	mov    %eax,-0x28(%rsp)
  4014dd:	8b 44 24 cc          	mov    -0x34(%rsp),%eax
  4014e1:	69 c0 33 34 00 00    	imul   $0x3433,%eax,%eax
  4014e7:	89 44 24 cc          	mov    %eax,-0x34(%rsp)
  4014eb:	8b 44 24 e4          	mov    -0x1c(%rsp),%eax
  4014ef:	69 c0 b5 a2 00 00    	imul   $0xa2b5,%eax,%eax
  4014f5:	89 44 24 e4          	mov    %eax,-0x1c(%rsp)
  4014f9:	8b 44 24 e8          	mov    -0x18(%rsp),%eax
  4014fd:	69 c0 07 a6 00 00    	imul   $0xa607,%eax,%eax
  401503:	89 44 24 e8          	mov    %eax,-0x18(%rsp)
  401507:	8b 44 24 ec          	mov    -0x14(%rsp),%eax
  40150b:	69 c0 5c b4 00 00    	imul   $0xb45c,%eax,%eax
  401511:	89 44 24 ec          	mov    %eax,-0x14(%rsp)
  401515:	8b 44 24 dc          	mov    -0x24(%rsp),%eax
  401519:	69 c0 9e cf 00 00    	imul   $0xcf9e,%eax,%eax
  40151f:	89 44 24 dc          	mov    %eax,-0x24(%rsp)
  401523:	8b 44 24 d4          	mov    -0x2c(%rsp),%eax
  401527:	69 c0 b9 6c 00 00    	imul   $0x6cb9,%eax,%eax
  40152d:	89 44 24 d4          	mov    %eax,-0x2c(%rsp)
  401531:	8b 44 24 e4          	mov    -0x1c(%rsp),%eax
  401535:	69 c0 29 3c 00 00    	imul   $0x3c29,%eax,%eax
  40153b:	89 44 24 e4          	mov    %eax,-0x1c(%rsp)
  40153f:	8b 44 24 ec          	mov    -0x14(%rsp),%eax
  401543:	69 c0 ff 18 00 00    	imul   $0x18ff,%eax,%eax
  401549:	89 44 24 ec          	mov    %eax,-0x14(%rsp)
  40154d:	8b 44 24 e4          	mov    -0x1c(%rsp),%eax
  401551:	69 c0 bd 04 00 00    	imul   $0x4bd,%eax,%eax
  401557:	89 44 24 e4          	mov    %eax,-0x1c(%rsp)
  40155b:	8b 44 24 cc          	mov    -0x34(%rsp),%eax
  40155f:	69 c0 76 fb 00 00    	imul   $0xfb76,%eax,%eax
  401565:	89 44 24 cc          	mov    %eax,-0x34(%rsp)
  401569:	8b 44 24 e8          	mov    -0x18(%rsp),%eax
  40156d:	69 c0 5c 45 00 00    	imul   $0x455c,%eax,%eax
  401573:	89 44 24 e8          	mov    %eax,-0x18(%rsp)
  401577:	8b 44 24 d8          	mov    -0x28(%rsp),%eax
  40157b:	69 c0 c0 10 00 00    	imul   $0x10c0,%eax,%eax
  401581:	89 44 24 d8          	mov    %eax,-0x28(%rsp)
  401585:	8b 44 24 cc          	mov    -0x34(%rsp),%eax
  401589:	69 c0 29 30 00 00    	imul   $0x3029,%eax,%eax
  40158f:	89 44 24 cc          	mov    %eax,-0x34(%rsp)
  401593:	8b 44 24 d8          	mov    -0x28(%rsp),%eax
  401597:	69 c0 50 dc 00 00    	imul   $0xdc50,%eax,%eax
  40159d:	89 44 24 d8          	mov    %eax,-0x28(%rsp)
  4015a1:	8b 44 24 e4          	mov    -0x1c(%rsp),%eax
  4015a5:	69 c0 7d 87 00 00    	imul   $0x877d,%eax,%eax
  4015ab:	89 44 24 e4          	mov    %eax,-0x1c(%rsp)
  4015af:	8b 44 24 d0          	mov    -0x30(%rsp),%eax
  4015b3:	69 c0 b0 83 00 00    	imul   $0x83b0,%eax,%eax
  4015b9:	89 44 24 d0          	mov    %eax,-0x30(%rsp)
  4015bd:	8b 44 24 cc          	mov    -0x34(%rsp),%eax
  4015c1:	69 c0 17 7a 00 00    	imul   $0x7a17,%eax,%eax
  4015c7:	89 44 24 cc          	mov    %eax,-0x34(%rsp)
  4015cb:	8b 44 24 c8          	mov    -0x38(%rsp),%eax
  4015cf:	69 c0 ad 4d 00 00    	imul   $0x4dad,%eax,%eax
  4015d5:	89 44 24 c8          	mov    %eax,-0x38(%rsp)
  4015d9:	8b 44 24 d4          	mov    -0x2c(%rsp),%eax
  4015dd:	69 c0 17 d6 00 00    	imul   $0xd617,%eax,%eax
  4015e3:	89 44 24 d4          	mov    %eax,-0x2c(%rsp)
  4015e7:	8b 44 24 ec          	mov    -0x14(%rsp),%eax
  4015eb:	69 c0 26 39 00 00    	imul   $0x3926,%eax,%eax
  4015f1:	89 44 24 ec          	mov    %eax,-0x14(%rsp)
  4015f5:	8b 44 24 cc          	mov    -0x34(%rsp),%eax
  4015f9:	69 c0 71 20 00 00    	imul   $0x2071,%eax,%eax
  4015ff:	89 44 24 cc          	mov    %eax,-0x34(%rsp)
  401603:	8b 44 24 e0          	mov    -0x20(%rsp),%eax
  401607:	69 c0 b7 4b 00 00    	imul   $0x4bb7,%eax,%eax
  40160d:	89 44 24 e0          	mov    %eax,-0x20(%rsp)
  401611:	8b 44 24 e0          	mov    -0x20(%rsp),%eax
  401615:	69 c0 76 23 00 00    	imul   $0x2376,%eax,%eax
  40161b:	89 44 24 e0          	mov    %eax,-0x20(%rsp)
  40161f:	8b 44 24 e0          	mov    -0x20(%rsp),%eax
  401623:	69 c0 cd 3c 00 00    	imul   $0x3ccd,%eax,%eax
  401629:	89 44 24 e0          	mov    %eax,-0x20(%rsp)
  40162d:	8b 44 24 e4          	mov    -0x1c(%rsp),%eax
  401631:	69 c0 67 c4 00 00    	imul   $0xc467,%eax,%eax
  401637:	89 44 24 e4          	mov    %eax,-0x1c(%rsp)
  40163b:	8b 44 24 cc          	mov    -0x34(%rsp),%eax
  40163f:	69 c0 39 a1 00 00    	imul   $0xa139,%eax,%eax
  401645:	89 44 24 cc          	mov    %eax,-0x34(%rsp)
  401649:	8b 44 24 dc          	mov    -0x24(%rsp),%eax
  40164d:	69 c0 0f b3 00 00    	imul   $0xb30f,%eax,%eax
  401653:	89 44 24 dc          	mov    %eax,-0x24(%rsp)
  401657:	8b 44 24 e4          	mov    -0x1c(%rsp),%eax
  40165b:	69 c0 d3 eb 00 00    	imul   $0xebd3,%eax,%eax
  401661:	89 44 24 e4          	mov    %eax,-0x1c(%rsp)
  401665:	8b 44 24 dc          	mov    -0x24(%rsp),%eax
  401669:	69 c0 bc c9 00 00    	imul   $0xc9bc,%eax,%eax
  40166f:	89 44 24 dc          	mov    %eax,-0x24(%rsp)
  401673:	8b 44 24 e4          	mov    -0x1c(%rsp),%eax
  401677:	69 c0 9d c2 00 00    	imul   $0xc29d,%eax,%eax
  40167d:	89 44 24 e4          	mov    %eax,-0x1c(%rsp)
  401681:	8b 44 24 d4          	mov    -0x2c(%rsp),%eax
  401685:	69 c0 25 6e 00 00    	imul   $0x6e25,%eax,%eax
  40168b:	89 44 24 d4          	mov    %eax,-0x2c(%rsp)
  40168f:	8b 44 24 d8          	mov    -0x28(%rsp),%eax
  401693:	69 c0 ea 0c 00 00    	imul   $0xcea,%eax,%eax
  401699:	89 44 24 d8          	mov    %eax,-0x28(%rsp)
  40169d:	8b 44 24 ec          	mov    -0x14(%rsp),%eax
  4016a1:	69 c0 b2 6c 00 00    	imul   $0x6cb2,%eax,%eax
  4016a7:	89 44 24 ec          	mov    %eax,-0x14(%rsp)
  4016ab:	8b 44 24 d4          	mov    -0x2c(%rsp),%eax
  4016af:	69 c0 5a 08 00 00    	imul   $0x85a,%eax,%eax
  4016b5:	89 44 24 d4          	mov    %eax,-0x2c(%rsp)
  4016b9:	8b 44 24 e0          	mov    -0x20(%rsp),%eax
  4016bd:	69 c0 a1 5c 00 00    	imul   $0x5ca1,%eax,%eax
  4016c3:	89 44 24 e0          	mov    %eax,-0x20(%rsp)
  4016c7:	8b 44 24 d8          	mov    -0x28(%rsp),%eax
  4016cb:	69 c0 7e e8 00 00    	imul   $0xe87e,%eax,%eax
  4016d1:	89 44 24 d8          	mov    %eax,-0x28(%rsp)
  4016d5:	8b 44 24 ec          	mov    -0x14(%rsp),%eax
  4016d9:	69 c0 60 e7 00 00    	imul   $0xe760,%eax,%eax
  4016df:	89 44 24 ec          	mov    %eax,-0x14(%rsp)
  4016e3:	8b 44 24 e8          	mov    -0x18(%rsp),%eax
  4016e7:	69 c0 ac d9 00 00    	imul   $0xd9ac,%eax,%eax
  4016ed:	89 44 24 e8          	mov    %eax,-0x18(%rsp)
  4016f1:	8b 44 24 e4          	mov    -0x1c(%rsp),%eax
  4016f5:	69 c0 eb 98 00 00    	imul   $0x98eb,%eax,%eax
  4016fb:	89 44 24 e4          	mov    %eax,-0x1c(%rsp)
  4016ff:	8b 44 24 cc          	mov    -0x34(%rsp),%eax
  401703:	69 c0 0a 33 00 00    	imul   $0x330a,%eax,%eax
  401709:	89 44 24 cc          	mov    %eax,-0x34(%rsp)
  40170d:	8b 44 24 d4          	mov    -0x2c(%rsp),%eax
  401711:	69 c0 bc 4e 00 00    	imul   $0x4ebc,%eax,%eax
  401717:	89 44 24 d4          	mov    %eax,-0x2c(%rsp)
  40171b:	8b 44 24 d8          	mov    -0x28(%rsp),%eax
  40171f:	69 c0 16 67 00 00    	imul   $0x6716,%eax,%eax
  401725:	89 44 24 d8          	mov    %eax,-0x28(%rsp)
  401729:	8b 44 24 d0          	mov    -0x30(%rsp),%eax
  40172d:	69 c0 3c 86 00 00    	imul   $0x863c,%eax,%eax
  401733:	89 44 24 d0          	mov    %eax,-0x30(%rsp)
  401737:	8b 44 24 ec          	mov    -0x14(%rsp),%eax
  40173b:	69 c0 05 e5 00 00    	imul   $0xe505,%eax,%eax
  401741:	89 44 24 ec          	mov    %eax,-0x14(%rsp)
  401745:	8b 44 24 d8          	mov    -0x28(%rsp),%eax
  401749:	69 c0 0d 1b 00 00    	imul   $0x1b0d,%eax,%eax
  40174f:	89 44 24 d8          	mov    %eax,-0x28(%rsp)
  401753:	8b 44 24 d0          	mov    -0x30(%rsp),%eax
  401757:	69 c0 32 a1 00 00    	imul   $0xa132,%eax,%eax
  40175d:	89 44 24 d0          	mov    %eax,-0x30(%rsp)
  401761:	8b 44 24 e8          	mov    -0x18(%rsp),%eax
  401765:	69 c0 ef ed 00 00    	imul   $0xedef,%eax,%eax
  40176b:	89 44 24 e8          	mov    %eax,-0x18(%rsp)
  40176f:	8b 44 24 d4          	mov    -0x2c(%rsp),%eax
  401773:	69 c0 6e 71 00 00    	imul   $0x716e,%eax,%eax
  401779:	89 44 24 d4          	mov    %eax,-0x2c(%rsp)
  40177d:	8b 44 24 cc          	mov    -0x34(%rsp),%eax
  401781:	69 c0 b4 08 00 00    	imul   $0x8b4,%eax,%eax
  401787:	89 44 24 cc          	mov    %eax,-0x34(%rsp)
  40178b:	8b 44 24 cc          	mov    -0x34(%rsp),%eax
  40178f:	69 c0 6a 9d 00 00    	imul   $0x9d6a,%eax,%eax
  401795:	89 44 24 cc          	mov    %eax,-0x34(%rsp)
  401799:	8b 44 24 d0          	mov    -0x30(%rsp),%eax
  40179d:	69 c0 49 bb 00 00    	imul   $0xbb49,%eax,%eax
  4017a3:	89 44 24 d0          	mov    %eax,-0x30(%rsp)
  4017a7:	8b 44 24 e4          	mov    -0x1c(%rsp),%eax
  4017ab:	69 c0 67 e2 00 00    	imul   $0xe267,%eax,%eax
  4017b1:	89 44 24 e4          	mov    %eax,-0x1c(%rsp)
  4017b5:	8b 44 24 e4          	mov    -0x1c(%rsp),%eax
  4017b9:	69 c0 1e ba 00 00    	imul   $0xba1e,%eax,%eax
  4017bf:	89 44 24 e4          	mov    %eax,-0x1c(%rsp)
  4017c3:	8b 44 24 cc          	mov    -0x34(%rsp),%eax
  4017c7:	69 c0 80 ad 00 00    	imul   $0xad80,%eax,%eax
  4017cd:	89 44 24 cc          	mov    %eax,-0x34(%rsp)
  4017d1:	8b 44 24 d0          	mov    -0x30(%rsp),%eax
  4017d5:	69 c0 8c d2 00 00    	imul   $0xd28c,%eax,%eax
  4017db:	89 44 24 d0          	mov    %eax,-0x30(%rsp)
  4017df:	8b 44 24 d0          	mov    -0x30(%rsp),%eax
  4017e3:	69 c0 5c b0 00 00    	imul   $0xb05c,%eax,%eax
  4017e9:	89 44 24 d0          	mov    %eax,-0x30(%rsp)
  4017ed:	8b 44 24 cc          	mov    -0x34(%rsp),%eax
  4017f1:	69 c0 ce b4 00 00    	imul   $0xb4ce,%eax,%eax
  4017f7:	89 44 24 cc          	mov    %eax,-0x34(%rsp)
  4017fb:	8b 44 24 e8          	mov    -0x18(%rsp),%eax
  4017ff:	69 c0 14 23 00 00    	imul   $0x2314,%eax,%eax
  401805:	89 44 24 e8          	mov    %eax,-0x18(%rsp)
  401809:	8b 44 24 ec          	mov    -0x14(%rsp),%eax
  40180d:	69 c0 5d 6a 00 00    	imul   $0x6a5d,%eax,%eax
  401813:	89 44 24 ec          	mov    %eax,-0x14(%rsp)
  401817:	8b 44 24 d0          	mov    -0x30(%rsp),%eax
  40181b:	69 c0 03 8b 00 00    	imul   $0x8b03,%eax,%eax
  401821:	89 44 24 d0          	mov    %eax,-0x30(%rsp)
  401825:	8b 44 24 e8          	mov    -0x18(%rsp),%eax
  401829:	69 c0 bb af 00 00    	imul   $0xafbb,%eax,%eax
  40182f:	89 44 24 e8          	mov    %eax,-0x18(%rsp)
  401833:	8b 44 24 d0          	mov    -0x30(%rsp),%eax
  401837:	69 c0 9d 0e 00 00    	imul   $0xe9d,%eax,%eax
  40183d:	89 44 24 d0          	mov    %eax,-0x30(%rsp)
  401841:	8b 44 24 cc          	mov    -0x34(%rsp),%eax
  401845:	69 c0 52 da 00 00    	imul   $0xda52,%eax,%eax
  40184b:	89 44 24 cc          	mov    %eax,-0x34(%rsp)
  40184f:	ba 00 00 00 00       	mov    $0x0,%edx
  401854:	b8 00 00 00 00       	mov    $0x0,%eax
  401859:	eb 0b                	jmp    401866 <scramble+0x4b0>
  40185b:	89 d1                	mov    %edx,%ecx
  40185d:	8b 4c 8c c8          	mov    -0x38(%rsp,%rcx,4),%ecx
  401861:	01 c8                	add    %ecx,%eax
  401863:	83 c2 01             	add    $0x1,%edx
  401866:	83 fa 09             	cmp    $0x9,%edx
  401869:	76 f0                	jbe    40185b <scramble+0x4a5>
  40186b:	f3 c3                	repz retq 

000000000040186d <getbuf>:
  40186d:	48 83 ec 18          	sub    $0x18,%rsp
  401871:	48 89 e7             	mov    %rsp,%rdi
  401874:	e8 87 02 00 00       	callq  401b00 <Gets>
  401879:	b8 01 00 00 00       	mov    $0x1,%eax
  40187e:	48 83 c4 18          	add    $0x18,%rsp
  401882:	c3                   	retq   

0000000000401883 <touch1>:
  401883:	48 83 ec 08          	sub    $0x8,%rsp
  401887:	c7 05 8b 2c 20 00 01 	movl   $0x1,0x202c8b(%rip)        # 60451c <vlevel>
  40188e:	00 00 00 
  401891:	bf 8a 31 40 00       	mov    $0x40318a,%edi
  401896:	e8 45 f4 ff ff       	callq  400ce0 <puts@plt>
  40189b:	bf 01 00 00 00       	mov    $0x1,%edi
  4018a0:	e8 b1 04 00 00       	callq  401d56 <validate>
  4018a5:	bf 00 00 00 00       	mov    $0x0,%edi
  4018aa:	e8 c1 f5 ff ff       	callq  400e70 <exit@plt>

00000000004018af <touch2>:
  4018af:	48 83 ec 08          	sub    $0x8,%rsp
  4018b3:	89 fa                	mov    %edi,%edx
  4018b5:	c7 05 5d 2c 20 00 02 	movl   $0x2,0x202c5d(%rip)        # 60451c <vlevel>
  4018bc:	00 00 00 
  4018bf:	3b 3d 5f 2c 20 00    	cmp    0x202c5f(%rip),%edi        # 604524 <cookie>
  4018c5:	75 20                	jne    4018e7 <touch2+0x38>
  4018c7:	be b0 31 40 00       	mov    $0x4031b0,%esi
  4018cc:	bf 01 00 00 00       	mov    $0x1,%edi
  4018d1:	b8 00 00 00 00       	mov    $0x0,%eax
  4018d6:	e8 45 f5 ff ff       	callq  400e20 <__printf_chk@plt>
  4018db:	bf 02 00 00 00       	mov    $0x2,%edi
  4018e0:	e8 71 04 00 00       	callq  401d56 <validate>
  4018e5:	eb 1e                	jmp    401905 <touch2+0x56>
  4018e7:	be d8 31 40 00       	mov    $0x4031d8,%esi
  4018ec:	bf 01 00 00 00       	mov    $0x1,%edi
  4018f1:	b8 00 00 00 00       	mov    $0x0,%eax
  4018f6:	e8 25 f5 ff ff       	callq  400e20 <__printf_chk@plt>
  4018fb:	bf 02 00 00 00       	mov    $0x2,%edi
  401900:	e8 13 05 00 00       	callq  401e18 <fail>
  401905:	bf 00 00 00 00       	mov    $0x0,%edi
  40190a:	e8 61 f5 ff ff       	callq  400e70 <exit@plt>

000000000040190f <hexmatch>:
  40190f:	41 54                	push   %r12
  401911:	55                   	push   %rbp
  401912:	53                   	push   %rbx
  401913:	48 83 c4 80          	add    $0xffffffffffffff80,%rsp
  401917:	41 89 fc             	mov    %edi,%r12d
  40191a:	48 89 f5             	mov    %rsi,%rbp
  40191d:	64 48 8b 04 25 28 00 	mov    %fs:0x28,%rax
  401924:	00 00 
  401926:	48 89 44 24 78       	mov    %rax,0x78(%rsp)
  40192b:	31 c0                	xor    %eax,%eax
  40192d:	e8 ae f4 ff ff       	callq  400de0 <random@plt>
  401932:	48 89 c1             	mov    %rax,%rcx
  401935:	48 ba 0b d7 a3 70 3d 	movabs $0xa3d70a3d70a3d70b,%rdx
  40193c:	0a d7 a3 
  40193f:	48 f7 ea             	imul   %rdx
  401942:	48 01 ca             	add    %rcx,%rdx
  401945:	48 c1 fa 06          	sar    $0x6,%rdx
  401949:	48 89 c8             	mov    %rcx,%rax
  40194c:	48 c1 f8 3f          	sar    $0x3f,%rax
  401950:	48 29 c2             	sub    %rax,%rdx
  401953:	48 8d 04 92          	lea    (%rdx,%rdx,4),%rax
  401957:	48 8d 04 80          	lea    (%rax,%rax,4),%rax
  40195b:	48 c1 e0 02          	shl    $0x2,%rax
  40195f:	48 29 c1             	sub    %rax,%rcx
  401962:	48 8d 1c 0c          	lea    (%rsp,%rcx,1),%rbx
  401966:	45 89 e0             	mov    %r12d,%r8d
  401969:	b9 a7 31 40 00       	mov    $0x4031a7,%ecx
  40196e:	48 c7 c2 ff ff ff ff 	mov    $0xffffffffffffffff,%rdx
  401975:	be 01 00 00 00       	mov    $0x1,%esi
  40197a:	48 89 df             	mov    %rbx,%rdi
  40197d:	b8 00 00 00 00       	mov    $0x0,%eax
  401982:	e8 19 f5 ff ff       	callq  400ea0 <__sprintf_chk@plt>
  401987:	ba 09 00 00 00       	mov    $0x9,%edx
  40198c:	48 89 de             	mov    %rbx,%rsi
  40198f:	48 89 ef             	mov    %rbp,%rdi
  401992:	e8 29 f3 ff ff       	callq  400cc0 <strncmp@plt>
  401997:	85 c0                	test   %eax,%eax
  401999:	0f 94 c0             	sete   %al
  40199c:	0f b6 c0             	movzbl %al,%eax
  40199f:	48 8b 74 24 78       	mov    0x78(%rsp),%rsi
  4019a4:	64 48 33 34 25 28 00 	xor    %fs:0x28,%rsi
  4019ab:	00 00 
  4019ad:	74 05                	je     4019b4 <hexmatch+0xa5>
  4019af:	e8 4c f3 ff ff       	callq  400d00 <__stack_chk_fail@plt>
  4019b4:	48 83 ec 80          	sub    $0xffffffffffffff80,%rsp
  4019b8:	5b                   	pop    %rbx
  4019b9:	5d                   	pop    %rbp
  4019ba:	41 5c                	pop    %r12
  4019bc:	c3                   	retq   

00000000004019bd <touch3>:
  4019bd:	53                   	push   %rbx
  4019be:	48 89 fb             	mov    %rdi,%rbx
  4019c1:	c7 05 51 2b 20 00 03 	movl   $0x3,0x202b51(%rip)        # 60451c <vlevel>
  4019c8:	00 00 00 
  4019cb:	48 89 fe             	mov    %rdi,%rsi
  4019ce:	8b 3d 50 2b 20 00    	mov    0x202b50(%rip),%edi        # 604524 <cookie>
  4019d4:	e8 36 ff ff ff       	callq  40190f <hexmatch>
  4019d9:	85 c0                	test   %eax,%eax
  4019db:	74 23                	je     401a00 <touch3+0x43>
  4019dd:	48 89 da             	mov    %rbx,%rdx
  4019e0:	be 00 32 40 00       	mov    $0x403200,%esi
  4019e5:	bf 01 00 00 00       	mov    $0x1,%edi
  4019ea:	b8 00 00 00 00       	mov    $0x0,%eax
  4019ef:	e8 2c f4 ff ff       	callq  400e20 <__printf_chk@plt>
  4019f4:	bf 03 00 00 00       	mov    $0x3,%edi
  4019f9:	e8 58 03 00 00       	callq  401d56 <validate>
  4019fe:	eb 21                	jmp    401a21 <touch3+0x64>
  401a00:	48 89 da             	mov    %rbx,%rdx
  401a03:	be 28 32 40 00       	mov    $0x403228,%esi
  401a08:	bf 01 00 00 00       	mov    $0x1,%edi
  401a0d:	b8 00 00 00 00       	mov    $0x0,%eax
  401a12:	e8 09 f4 ff ff       	callq  400e20 <__printf_chk@plt>
  401a17:	bf 03 00 00 00       	mov    $0x3,%edi
  401a1c:	e8 f7 03 00 00       	callq  401e18 <fail>
  401a21:	bf 00 00 00 00       	mov    $0x0,%edi
  401a26:	e8 45 f4 ff ff       	callq  400e70 <exit@plt>

0000000000401a2b <test>:
  401a2b:	48 83 ec 08          	sub    $0x8,%rsp
  401a2f:	b8 00 00 00 00       	mov    $0x0,%eax
  401a34:	e8 34 fe ff ff       	callq  40186d <getbuf>
  401a39:	89 c2                	mov    %eax,%edx
  401a3b:	be 50 32 40 00       	mov    $0x403250,%esi
  401a40:	bf 01 00 00 00       	mov    $0x1,%edi
  401a45:	b8 00 00 00 00       	mov    $0x0,%eax
  401a4a:	e8 d1 f3 ff ff       	callq  400e20 <__printf_chk@plt>
  401a4f:	48 83 c4 08          	add    $0x8,%rsp
  401a53:	c3                   	retq   
  401a54:	66 2e 0f 1f 84 00 00 	nopw   %cs:0x0(%rax,%rax,1)
  401a5b:	00 00 00 
  401a5e:	66 90                	xchg   %ax,%ax

0000000000401a60 <save_char>:
  401a60:	8b 05 de 36 20 00    	mov    0x2036de(%rip),%eax        # 605144 <gets_cnt>
  401a66:	3d ff 03 00 00       	cmp    $0x3ff,%eax
  401a6b:	7f 49                	jg     401ab6 <save_char+0x56>
  401a6d:	8d 14 40             	lea    (%rax,%rax,2),%edx
  401a70:	89 f9                	mov    %edi,%ecx
  401a72:	c0 e9 04             	shr    $0x4,%cl
  401a75:	83 e1 0f             	and    $0xf,%ecx
  401a78:	0f b6 b1 70 35 40 00 	movzbl 0x403570(%rcx),%esi
  401a7f:	48 63 ca             	movslq %edx,%rcx
  401a82:	40 88 b1 40 45 60 00 	mov    %sil,0x604540(%rcx)
  401a89:	8d 4a 01             	lea    0x1(%rdx),%ecx
  401a8c:	83 e7 0f             	and    $0xf,%edi
  401a8f:	0f b6 b7 70 35 40 00 	movzbl 0x403570(%rdi),%esi
  401a96:	48 63 c9             	movslq %ecx,%rcx
  401a99:	40 88 b1 40 45 60 00 	mov    %sil,0x604540(%rcx)
  401aa0:	83 c2 02             	add    $0x2,%edx
  401aa3:	48 63 d2             	movslq %edx,%rdx
  401aa6:	c6 82 40 45 60 00 20 	movb   $0x20,0x604540(%rdx)
  401aad:	83 c0 01             	add    $0x1,%eax
  401ab0:	89 05 8e 36 20 00    	mov    %eax,0x20368e(%rip)        # 605144 <gets_cnt>
  401ab6:	f3 c3                	repz retq 

0000000000401ab8 <save_term>:
  401ab8:	8b 05 86 36 20 00    	mov    0x203686(%rip),%eax        # 605144 <gets_cnt>
  401abe:	8d 04 40             	lea    (%rax,%rax,2),%eax
  401ac1:	48 98                	cltq   
  401ac3:	c6 80 40 45 60 00 00 	movb   $0x0,0x604540(%rax)
  401aca:	c3                   	retq   

0000000000401acb <check_fail>:
  401acb:	48 83 ec 08          	sub    $0x8,%rsp
  401acf:	0f be 15 72 36 20 00 	movsbl 0x203672(%rip),%edx        # 605148 <target_prefix>
  401ad6:	41 b8 40 45 60 00    	mov    $0x604540,%r8d
  401adc:	8b 0d 36 2a 20 00    	mov    0x202a36(%rip),%ecx        # 604518 <check_level>
  401ae2:	be 73 32 40 00       	mov    $0x403273,%esi
  401ae7:	bf 01 00 00 00       	mov    $0x1,%edi
  401aec:	b8 00 00 00 00       	mov    $0x0,%eax
  401af1:	e8 2a f3 ff ff       	callq  400e20 <__printf_chk@plt>
  401af6:	bf 01 00 00 00       	mov    $0x1,%edi
  401afb:	e8 70 f3 ff ff       	callq  400e70 <exit@plt>

0000000000401b00 <Gets>:
  401b00:	41 54                	push   %r12
  401b02:	55                   	push   %rbp
  401b03:	53                   	push   %rbx
  401b04:	49 89 fc             	mov    %rdi,%r12
  401b07:	c7 05 33 36 20 00 00 	movl   $0x0,0x203633(%rip)        # 605144 <gets_cnt>
  401b0e:	00 00 00 
  401b11:	48 89 fb             	mov    %rdi,%rbx
  401b14:	eb 11                	jmp    401b27 <Gets+0x27>
  401b16:	48 8d 6b 01          	lea    0x1(%rbx),%rbp
  401b1a:	88 03                	mov    %al,(%rbx)
  401b1c:	0f b6 f8             	movzbl %al,%edi
  401b1f:	e8 3c ff ff ff       	callq  401a60 <save_char>
  401b24:	48 89 eb             	mov    %rbp,%rbx
  401b27:	48 8b 3d e2 29 20 00 	mov    0x2029e2(%rip),%rdi        # 604510 <infile>
  401b2e:	e8 bd f2 ff ff       	callq  400df0 <_IO_getc@plt>
  401b33:	83 f8 ff             	cmp    $0xffffffff,%eax
  401b36:	74 05                	je     401b3d <Gets+0x3d>
  401b38:	83 f8 0a             	cmp    $0xa,%eax
  401b3b:	75 d9                	jne    401b16 <Gets+0x16>
  401b3d:	c6 03 00             	movb   $0x0,(%rbx)
  401b40:	b8 00 00 00 00       	mov    $0x0,%eax
  401b45:	e8 6e ff ff ff       	callq  401ab8 <save_term>
  401b4a:	4c 89 e0             	mov    %r12,%rax
  401b4d:	5b                   	pop    %rbx
  401b4e:	5d                   	pop    %rbp
  401b4f:	41 5c                	pop    %r12
  401b51:	c3                   	retq   

0000000000401b52 <notify_server>:
  401b52:	53                   	push   %rbx
  401b53:	48 81 ec 30 40 00 00 	sub    $0x4030,%rsp
  401b5a:	64 48 8b 04 25 28 00 	mov    %fs:0x28,%rax
  401b61:	00 00 
  401b63:	48 89 84 24 28 40 00 	mov    %rax,0x4028(%rsp)
  401b6a:	00 
  401b6b:	31 c0                	xor    %eax,%eax
  401b6d:	83 3d b4 29 20 00 00 	cmpl   $0x0,0x2029b4(%rip)        # 604528 <is_checker>
  401b74:	0f 85 bb 01 00 00    	jne    401d35 <notify_server+0x1e3>
  401b7a:	89 fb                	mov    %edi,%ebx
  401b7c:	8b 05 c2 35 20 00    	mov    0x2035c2(%rip),%eax        # 605144 <gets_cnt>
  401b82:	83 c0 64             	add    $0x64,%eax
  401b85:	3d 00 20 00 00       	cmp    $0x2000,%eax
  401b8a:	7e 1e                	jle    401baa <notify_server+0x58>
  401b8c:	be a8 33 40 00       	mov    $0x4033a8,%esi
  401b91:	bf 01 00 00 00       	mov    $0x1,%edi
  401b96:	b8 00 00 00 00       	mov    $0x0,%eax
  401b9b:	e8 80 f2 ff ff       	callq  400e20 <__printf_chk@plt>
  401ba0:	bf 01 00 00 00       	mov    $0x1,%edi
  401ba5:	e8 c6 f2 ff ff       	callq  400e70 <exit@plt>
  401baa:	0f be 05 97 35 20 00 	movsbl 0x203597(%rip),%eax        # 605148 <target_prefix>
  401bb1:	83 3d f0 28 20 00 00 	cmpl   $0x0,0x2028f0(%rip)        # 6044a8 <notify>
  401bb8:	74 08                	je     401bc2 <notify_server+0x70>
  401bba:	8b 15 60 29 20 00    	mov    0x202960(%rip),%edx        # 604520 <authkey>
  401bc0:	eb 05                	jmp    401bc7 <notify_server+0x75>
  401bc2:	ba ff ff ff ff       	mov    $0xffffffff,%edx
  401bc7:	85 db                	test   %ebx,%ebx
  401bc9:	74 08                	je     401bd3 <notify_server+0x81>
  401bcb:	41 b9 89 32 40 00    	mov    $0x403289,%r9d
  401bd1:	eb 06                	jmp    401bd9 <notify_server+0x87>
  401bd3:	41 b9 8e 32 40 00    	mov    $0x40328e,%r9d
  401bd9:	48 c7 44 24 18 40 45 	movq   $0x604540,0x18(%rsp)
  401be0:	60 00 
  401be2:	89 74 24 10          	mov    %esi,0x10(%rsp)
  401be6:	89 44 24 08          	mov    %eax,0x8(%rsp)
  401bea:	89 14 24             	mov    %edx,(%rsp)
  401bed:	44 8b 05 74 25 20 00 	mov    0x202574(%rip),%r8d        # 604168 <target_id>
  401bf4:	b9 93 32 40 00       	mov    $0x403293,%ecx
  401bf9:	ba 00 20 00 00       	mov    $0x2000,%edx
  401bfe:	be 01 00 00 00       	mov    $0x1,%esi
  401c03:	48 8d 7c 24 20       	lea    0x20(%rsp),%rdi
  401c08:	b8 00 00 00 00       	mov    $0x0,%eax
  401c0d:	e8 8e f2 ff ff       	callq  400ea0 <__sprintf_chk@plt>
  401c12:	83 3d 8f 28 20 00 00 	cmpl   $0x0,0x20288f(%rip)        # 6044a8 <notify>
  401c19:	0f 84 86 00 00 00    	je     401ca5 <notify_server+0x153>
  401c1f:	85 db                	test   %ebx,%ebx
  401c21:	74 70                	je     401c93 <notify_server+0x141>
  401c23:	4c 8d 8c 24 20 20 00 	lea    0x2020(%rsp),%r9
  401c2a:	00 
  401c2b:	41 b8 00 00 00 00    	mov    $0x0,%r8d
  401c31:	48 8d 4c 24 20       	lea    0x20(%rsp),%rcx
  401c36:	48 8b 15 33 25 20 00 	mov    0x202533(%rip),%rdx        # 604170 <lab>
  401c3d:	48 8b 35 34 25 20 00 	mov    0x202534(%rip),%rsi        # 604178 <course>
  401c44:	48 8b 3d 15 25 20 00 	mov    0x202515(%rip),%rdi        # 604160 <user_id>
  401c4b:	e8 be 10 00 00       	callq  402d0e <driver_post>
  401c50:	85 c0                	test   %eax,%eax
  401c52:	79 26                	jns    401c7a <notify_server+0x128>
  401c54:	48 8d 94 24 20 20 00 	lea    0x2020(%rsp),%rdx
  401c5b:	00 
  401c5c:	be af 32 40 00       	mov    $0x4032af,%esi
  401c61:	bf 01 00 00 00       	mov    $0x1,%edi
  401c66:	b8 00 00 00 00       	mov    $0x0,%eax
  401c6b:	e8 b0 f1 ff ff       	callq  400e20 <__printf_chk@plt>
  401c70:	bf 01 00 00 00       	mov    $0x1,%edi
  401c75:	e8 f6 f1 ff ff       	callq  400e70 <exit@plt>
  401c7a:	bf d8 33 40 00       	mov    $0x4033d8,%edi
  401c7f:	e8 5c f0 ff ff       	callq  400ce0 <puts@plt>
  401c84:	bf bb 32 40 00       	mov    $0x4032bb,%edi
  401c89:	e8 52 f0 ff ff       	callq  400ce0 <puts@plt>
  401c8e:	e9 a2 00 00 00       	jmpq   401d35 <notify_server+0x1e3>
  401c93:	bf c5 32 40 00       	mov    $0x4032c5,%edi
  401c98:	e8 43 f0 ff ff       	callq  400ce0 <puts@plt>
  401c9d:	0f 1f 00             	nopl   (%rax)
  401ca0:	e9 90 00 00 00       	jmpq   401d35 <notify_server+0x1e3>
  401ca5:	85 db                	test   %ebx,%ebx
  401ca7:	74 09                	je     401cb2 <notify_server+0x160>
  401ca9:	ba 89 32 40 00       	mov    $0x403289,%edx
  401cae:	66 90                	xchg   %ax,%ax
  401cb0:	eb 05                	jmp    401cb7 <notify_server+0x165>
  401cb2:	ba 8e 32 40 00       	mov    $0x40328e,%edx
  401cb7:	be 10 34 40 00       	mov    $0x403410,%esi
  401cbc:	bf 01 00 00 00       	mov    $0x1,%edi
  401cc1:	b8 00 00 00 00       	mov    $0x0,%eax
  401cc6:	e8 55 f1 ff ff       	callq  400e20 <__printf_chk@plt>
  401ccb:	48 8b 15 8e 24 20 00 	mov    0x20248e(%rip),%rdx        # 604160 <user_id>
  401cd2:	be cc 32 40 00       	mov    $0x4032cc,%esi
  401cd7:	bf 01 00 00 00       	mov    $0x1,%edi
  401cdc:	b8 00 00 00 00       	mov    $0x0,%eax
  401ce1:	e8 3a f1 ff ff       	callq  400e20 <__printf_chk@plt>
  401ce6:	48 8b 15 8b 24 20 00 	mov    0x20248b(%rip),%rdx        # 604178 <course>
  401ced:	be d9 32 40 00       	mov    $0x4032d9,%esi
  401cf2:	bf 01 00 00 00       	mov    $0x1,%edi
  401cf7:	b8 00 00 00 00       	mov    $0x0,%eax
  401cfc:	e8 1f f1 ff ff       	callq  400e20 <__printf_chk@plt>
  401d01:	48 8b 15 68 24 20 00 	mov    0x202468(%rip),%rdx        # 604170 <lab>
  401d08:	be e5 32 40 00       	mov    $0x4032e5,%esi
  401d0d:	bf 01 00 00 00       	mov    $0x1,%edi
  401d12:	b8 00 00 00 00       	mov    $0x0,%eax
  401d17:	e8 04 f1 ff ff       	callq  400e20 <__printf_chk@plt>
  401d1c:	48 8d 54 24 20       	lea    0x20(%rsp),%rdx
  401d21:	be ee 32 40 00       	mov    $0x4032ee,%esi
  401d26:	bf 01 00 00 00       	mov    $0x1,%edi
  401d2b:	b8 00 00 00 00       	mov    $0x0,%eax
  401d30:	e8 eb f0 ff ff       	callq  400e20 <__printf_chk@plt>
  401d35:	48 8b 84 24 28 40 00 	mov    0x4028(%rsp),%rax
  401d3c:	00 
  401d3d:	64 48 33 04 25 28 00 	xor    %fs:0x28,%rax
  401d44:	00 00 
  401d46:	74 05                	je     401d4d <notify_server+0x1fb>
  401d48:	e8 b3 ef ff ff       	callq  400d00 <__stack_chk_fail@plt>
  401d4d:	48 81 c4 30 40 00 00 	add    $0x4030,%rsp
  401d54:	5b                   	pop    %rbx
  401d55:	c3                   	retq   

0000000000401d56 <validate>:
  401d56:	53                   	push   %rbx
  401d57:	89 fb                	mov    %edi,%ebx
  401d59:	83 3d c8 27 20 00 00 	cmpl   $0x0,0x2027c8(%rip)        # 604528 <is_checker>
  401d60:	74 6b                	je     401dcd <validate+0x77>
  401d62:	39 3d b4 27 20 00    	cmp    %edi,0x2027b4(%rip)        # 60451c <vlevel>
  401d68:	74 14                	je     401d7e <validate+0x28>
  401d6a:	bf fa 32 40 00       	mov    $0x4032fa,%edi
  401d6f:	e8 6c ef ff ff       	callq  400ce0 <puts@plt>
  401d74:	b8 00 00 00 00       	mov    $0x0,%eax
  401d79:	e8 4d fd ff ff       	callq  401acb <check_fail>
  401d7e:	8b 15 94 27 20 00    	mov    0x202794(%rip),%edx        # 604518 <check_level>
  401d84:	39 fa                	cmp    %edi,%edx
  401d86:	74 20                	je     401da8 <validate+0x52>
  401d88:	89 f9                	mov    %edi,%ecx
  401d8a:	be 38 34 40 00       	mov    $0x403438,%esi
  401d8f:	bf 01 00 00 00       	mov    $0x1,%edi
  401d94:	b8 00 00 00 00       	mov    $0x0,%eax
  401d99:	e8 82 f0 ff ff       	callq  400e20 <__printf_chk@plt>
  401d9e:	b8 00 00 00 00       	mov    $0x0,%eax
  401da3:	e8 23 fd ff ff       	callq  401acb <check_fail>
  401da8:	0f be 15 99 33 20 00 	movsbl 0x203399(%rip),%edx        # 605148 <target_prefix>
  401daf:	41 b8 40 45 60 00    	mov    $0x604540,%r8d
  401db5:	89 f9                	mov    %edi,%ecx
  401db7:	be 18 33 40 00       	mov    $0x403318,%esi
  401dbc:	bf 01 00 00 00       	mov    $0x1,%edi
  401dc1:	b8 00 00 00 00       	mov    $0x0,%eax
  401dc6:	e8 55 f0 ff ff       	callq  400e20 <__printf_chk@plt>
  401dcb:	eb 49                	jmp    401e16 <validate+0xc0>
  401dcd:	39 3d 49 27 20 00    	cmp    %edi,0x202749(%rip)        # 60451c <vlevel>
  401dd3:	74 18                	je     401ded <validate+0x97>
  401dd5:	bf fa 32 40 00       	mov    $0x4032fa,%edi
  401dda:	e8 01 ef ff ff       	callq  400ce0 <puts@plt>
  401ddf:	89 de                	mov    %ebx,%esi
  401de1:	bf 00 00 00 00       	mov    $0x0,%edi
  401de6:	e8 67 fd ff ff       	callq  401b52 <notify_server>
  401deb:	eb 29                	jmp    401e16 <validate+0xc0>
  401ded:	0f be 0d 54 33 20 00 	movsbl 0x203354(%rip),%ecx        # 605148 <target_prefix>
  401df4:	89 fa                	mov    %edi,%edx
  401df6:	be 60 34 40 00       	mov    $0x403460,%esi
  401dfb:	bf 01 00 00 00       	mov    $0x1,%edi
  401e00:	b8 00 00 00 00       	mov    $0x0,%eax
  401e05:	e8 16 f0 ff ff       	callq  400e20 <__printf_chk@plt>
  401e0a:	89 de                	mov    %ebx,%esi
  401e0c:	bf 01 00 00 00       	mov    $0x1,%edi
  401e11:	e8 3c fd ff ff       	callq  401b52 <notify_server>
  401e16:	5b                   	pop    %rbx
  401e17:	c3                   	retq   

0000000000401e18 <fail>:
  401e18:	48 83 ec 08          	sub    $0x8,%rsp
  401e1c:	83 3d 05 27 20 00 00 	cmpl   $0x0,0x202705(%rip)        # 604528 <is_checker>
  401e23:	74 0a                	je     401e2f <fail+0x17>
  401e25:	b8 00 00 00 00       	mov    $0x0,%eax
  401e2a:	e8 9c fc ff ff       	callq  401acb <check_fail>
  401e2f:	89 fe                	mov    %edi,%esi
  401e31:	bf 00 00 00 00       	mov    $0x0,%edi
  401e36:	e8 17 fd ff ff       	callq  401b52 <notify_server>
  401e3b:	48 83 c4 08          	add    $0x8,%rsp
  401e3f:	c3                   	retq   

0000000000401e40 <bushandler>:
  401e40:	48 83 ec 08          	sub    $0x8,%rsp
  401e44:	83 3d dd 26 20 00 00 	cmpl   $0x0,0x2026dd(%rip)        # 604528 <is_checker>
  401e4b:	74 14                	je     401e61 <bushandler+0x21>
  401e4d:	bf 2d 33 40 00       	mov    $0x40332d,%edi
  401e52:	e8 89 ee ff ff       	callq  400ce0 <puts@plt>
  401e57:	b8 00 00 00 00       	mov    $0x0,%eax
  401e5c:	e8 6a fc ff ff       	callq  401acb <check_fail>
  401e61:	bf 98 34 40 00       	mov    $0x403498,%edi
  401e66:	e8 75 ee ff ff       	callq  400ce0 <puts@plt>
  401e6b:	bf 37 33 40 00       	mov    $0x403337,%edi
  401e70:	e8 6b ee ff ff       	callq  400ce0 <puts@plt>
  401e75:	be 00 00 00 00       	mov    $0x0,%esi
  401e7a:	bf 00 00 00 00       	mov    $0x0,%edi
  401e7f:	e8 ce fc ff ff       	callq  401b52 <notify_server>
  401e84:	bf 01 00 00 00       	mov    $0x1,%edi
  401e89:	e8 e2 ef ff ff       	callq  400e70 <exit@plt>

0000000000401e8e <seghandler>:
  401e8e:	48 83 ec 08          	sub    $0x8,%rsp
  401e92:	83 3d 8f 26 20 00 00 	cmpl   $0x0,0x20268f(%rip)        # 604528 <is_checker>
  401e99:	74 14                	je     401eaf <seghandler+0x21>
  401e9b:	bf 4d 33 40 00       	mov    $0x40334d,%edi
  401ea0:	e8 3b ee ff ff       	callq  400ce0 <puts@plt>
  401ea5:	b8 00 00 00 00       	mov    $0x0,%eax
  401eaa:	e8 1c fc ff ff       	callq  401acb <check_fail>
  401eaf:	bf b8 34 40 00       	mov    $0x4034b8,%edi
  401eb4:	e8 27 ee ff ff       	callq  400ce0 <puts@plt>
  401eb9:	bf 37 33 40 00       	mov    $0x403337,%edi
  401ebe:	e8 1d ee ff ff       	callq  400ce0 <puts@plt>
  401ec3:	be 00 00 00 00       	mov    $0x0,%esi
  401ec8:	bf 00 00 00 00       	mov    $0x0,%edi
  401ecd:	e8 80 fc ff ff       	callq  401b52 <notify_server>
  401ed2:	bf 01 00 00 00       	mov    $0x1,%edi
  401ed7:	e8 94 ef ff ff       	callq  400e70 <exit@plt>

0000000000401edc <illegalhandler>:
  401edc:	48 83 ec 08          	sub    $0x8,%rsp
  401ee0:	83 3d 41 26 20 00 00 	cmpl   $0x0,0x202641(%rip)        # 604528 <is_checker>
  401ee7:	74 14                	je     401efd <illegalhandler+0x21>
  401ee9:	bf 60 33 40 00       	mov    $0x403360,%edi
  401eee:	e8 ed ed ff ff       	callq  400ce0 <puts@plt>
  401ef3:	b8 00 00 00 00       	mov    $0x0,%eax
  401ef8:	e8 ce fb ff ff       	callq  401acb <check_fail>
  401efd:	bf e0 34 40 00       	mov    $0x4034e0,%edi
  401f02:	e8 d9 ed ff ff       	callq  400ce0 <puts@plt>
  401f07:	bf 37 33 40 00       	mov    $0x403337,%edi
  401f0c:	e8 cf ed ff ff       	callq  400ce0 <puts@plt>
  401f11:	be 00 00 00 00       	mov    $0x0,%esi
  401f16:	bf 00 00 00 00       	mov    $0x0,%edi
  401f1b:	e8 32 fc ff ff       	callq  401b52 <notify_server>
  401f20:	bf 01 00 00 00       	mov    $0x1,%edi
  401f25:	e8 46 ef ff ff       	callq  400e70 <exit@plt>

0000000000401f2a <sigalrmhandler>:
  401f2a:	48 83 ec 08          	sub    $0x8,%rsp
  401f2e:	83 3d f3 25 20 00 00 	cmpl   $0x0,0x2025f3(%rip)        # 604528 <is_checker>
  401f35:	74 14                	je     401f4b <sigalrmhandler+0x21>
  401f37:	bf 74 33 40 00       	mov    $0x403374,%edi
  401f3c:	e8 9f ed ff ff       	callq  400ce0 <puts@plt>
  401f41:	b8 00 00 00 00       	mov    $0x0,%eax
  401f46:	e8 80 fb ff ff       	callq  401acb <check_fail>
  401f4b:	ba 05 00 00 00       	mov    $0x5,%edx
  401f50:	be 10 35 40 00       	mov    $0x403510,%esi
  401f55:	bf 01 00 00 00       	mov    $0x1,%edi
  401f5a:	b8 00 00 00 00       	mov    $0x0,%eax
  401f5f:	e8 bc ee ff ff       	callq  400e20 <__printf_chk@plt>
  401f64:	be 00 00 00 00       	mov    $0x0,%esi
  401f69:	bf 00 00 00 00       	mov    $0x0,%edi
  401f6e:	e8 df fb ff ff       	callq  401b52 <notify_server>
  401f73:	bf 01 00 00 00       	mov    $0x1,%edi
  401f78:	e8 f3 ee ff ff       	callq  400e70 <exit@plt>

0000000000401f7d <launch>:
  401f7d:	55                   	push   %rbp
  401f7e:	48 89 e5             	mov    %rsp,%rbp
  401f81:	48 83 ec 10          	sub    $0x10,%rsp
  401f85:	48 89 fa             	mov    %rdi,%rdx
  401f88:	64 48 8b 04 25 28 00 	mov    %fs:0x28,%rax
  401f8f:	00 00 
  401f91:	48 89 45 f8          	mov    %rax,-0x8(%rbp)
  401f95:	31 c0                	xor    %eax,%eax
  401f97:	48 8d 47 1e          	lea    0x1e(%rdi),%rax
  401f9b:	48 83 e0 f0          	and    $0xfffffffffffffff0,%rax
  401f9f:	48 29 c4             	sub    %rax,%rsp
  401fa2:	48 8d 7c 24 0f       	lea    0xf(%rsp),%rdi
  401fa7:	48 83 e7 f0          	and    $0xfffffffffffffff0,%rdi
  401fab:	be f4 00 00 00       	mov    $0xf4,%esi
  401fb0:	e8 6b ed ff ff       	callq  400d20 <memset@plt>
  401fb5:	48 8b 05 04 25 20 00 	mov    0x202504(%rip),%rax        # 6044c0 <stdin@@GLIBC_2.2.5>
  401fbc:	48 39 05 4d 25 20 00 	cmp    %rax,0x20254d(%rip)        # 604510 <infile>
  401fc3:	75 14                	jne    401fd9 <launch+0x5c>
  401fc5:	be 7c 33 40 00       	mov    $0x40337c,%esi
  401fca:	bf 01 00 00 00       	mov    $0x1,%edi
  401fcf:	b8 00 00 00 00       	mov    $0x0,%eax
  401fd4:	e8 47 ee ff ff       	callq  400e20 <__printf_chk@plt>
  401fd9:	c7 05 39 25 20 00 00 	movl   $0x0,0x202539(%rip)        # 60451c <vlevel>
  401fe0:	00 00 00 
  401fe3:	b8 00 00 00 00       	mov    $0x0,%eax
  401fe8:	e8 3e fa ff ff       	callq  401a2b <test>
  401fed:	83 3d 34 25 20 00 00 	cmpl   $0x0,0x202534(%rip)        # 604528 <is_checker>
  401ff4:	74 14                	je     40200a <launch+0x8d>
  401ff6:	bf 89 33 40 00       	mov    $0x403389,%edi
  401ffb:	e8 e0 ec ff ff       	callq  400ce0 <puts@plt>
  402000:	b8 00 00 00 00       	mov    $0x0,%eax
  402005:	e8 c1 fa ff ff       	callq  401acb <check_fail>
  40200a:	bf 94 33 40 00       	mov    $0x403394,%edi
  40200f:	e8 cc ec ff ff       	callq  400ce0 <puts@plt>
  402014:	48 8b 45 f8          	mov    -0x8(%rbp),%rax
  402018:	64 48 33 04 25 28 00 	xor    %fs:0x28,%rax
  40201f:	00 00 
  402021:	74 05                	je     402028 <launch+0xab>
  402023:	e8 d8 ec ff ff       	callq  400d00 <__stack_chk_fail@plt>
  402028:	c9                   	leaveq 
  402029:	c3                   	retq   

000000000040202a <stable_launch>:
  40202a:	53                   	push   %rbx
  40202b:	48 89 3d d6 24 20 00 	mov    %rdi,0x2024d6(%rip)        # 604508 <global_offset>
  402032:	41 b9 00 00 00 00    	mov    $0x0,%r9d
  402038:	41 b8 00 00 00 00    	mov    $0x0,%r8d
  40203e:	b9 32 01 00 00       	mov    $0x132,%ecx
  402043:	ba 07 00 00 00       	mov    $0x7,%edx
  402048:	be 00 00 10 00       	mov    $0x100000,%esi
  40204d:	bf 00 60 58 55       	mov    $0x55586000,%edi
  402052:	e8 b9 ec ff ff       	callq  400d10 <mmap@plt>
  402057:	48 89 c3             	mov    %rax,%rbx
  40205a:	48 3d 00 60 58 55    	cmp    $0x55586000,%rax
  402060:	74 37                	je     402099 <stable_launch+0x6f>
  402062:	be 00 00 10 00       	mov    $0x100000,%esi
  402067:	48 89 c7             	mov    %rax,%rdi
  40206a:	e8 a1 ed ff ff       	callq  400e10 <munmap@plt>
  40206f:	b9 00 60 58 55       	mov    $0x55586000,%ecx
  402074:	ba 48 35 40 00       	mov    $0x403548,%edx
  402079:	be 01 00 00 00       	mov    $0x1,%esi
  40207e:	48 8b 3d 63 24 20 00 	mov    0x202463(%rip),%rdi        # 6044e8 <stderr@@GLIBC_2.2.5>
  402085:	b8 00 00 00 00       	mov    $0x0,%eax
  40208a:	e8 01 ee ff ff       	callq  400e90 <__fprintf_chk@plt>
  40208f:	bf 01 00 00 00       	mov    $0x1,%edi
  402094:	e8 d7 ed ff ff       	callq  400e70 <exit@plt>
  402099:	48 8d 90 f8 ff 0f 00 	lea    0xffff8(%rax),%rdx
  4020a0:	48 89 15 a9 30 20 00 	mov    %rdx,0x2030a9(%rip)        # 605150 <stack_top>
  4020a7:	48 89 e0             	mov    %rsp,%rax
  4020aa:	48 89 d4             	mov    %rdx,%rsp
  4020ad:	48 89 c2             	mov    %rax,%rdx
  4020b0:	48 89 15 49 24 20 00 	mov    %rdx,0x202449(%rip)        # 604500 <global_save_stack>
  4020b7:	48 8b 3d 4a 24 20 00 	mov    0x20244a(%rip),%rdi        # 604508 <global_offset>
  4020be:	e8 ba fe ff ff       	callq  401f7d <launch>
  4020c3:	48 8b 05 36 24 20 00 	mov    0x202436(%rip),%rax        # 604500 <global_save_stack>
  4020ca:	48 89 c4             	mov    %rax,%rsp
  4020cd:	be 00 00 10 00       	mov    $0x100000,%esi
  4020d2:	48 89 df             	mov    %rbx,%rdi
  4020d5:	e8 36 ed ff ff       	callq  400e10 <munmap@plt>
  4020da:	5b                   	pop    %rbx
  4020db:	c3                   	retq   
  4020dc:	0f 1f 40 00          	nopl   0x0(%rax)

00000000004020e0 <rio_readinitb>:
  4020e0:	89 37                	mov    %esi,(%rdi)
  4020e2:	c7 47 04 00 00 00 00 	movl   $0x0,0x4(%rdi)
  4020e9:	48 8d 47 10          	lea    0x10(%rdi),%rax
  4020ed:	48 89 47 08          	mov    %rax,0x8(%rdi)
  4020f1:	c3                   	retq   

00000000004020f2 <sigalrm_handler>:
  4020f2:	48 83 ec 08          	sub    $0x8,%rsp
  4020f6:	b9 00 00 00 00       	mov    $0x0,%ecx
  4020fb:	ba 80 35 40 00       	mov    $0x403580,%edx
  402100:	be 01 00 00 00       	mov    $0x1,%esi
  402105:	48 8b 3d dc 23 20 00 	mov    0x2023dc(%rip),%rdi        # 6044e8 <stderr@@GLIBC_2.2.5>
  40210c:	b8 00 00 00 00       	mov    $0x0,%eax
  402111:	e8 7a ed ff ff       	callq  400e90 <__fprintf_chk@plt>
  402116:	bf 01 00 00 00       	mov    $0x1,%edi
  40211b:	e8 50 ed ff ff       	callq  400e70 <exit@plt>

0000000000402120 <rio_writen>:
  402120:	41 55                	push   %r13
  402122:	41 54                	push   %r12
  402124:	55                   	push   %rbp
  402125:	53                   	push   %rbx
  402126:	48 83 ec 08          	sub    $0x8,%rsp
  40212a:	41 89 fc             	mov    %edi,%r12d
  40212d:	48 89 f5             	mov    %rsi,%rbp
  402130:	49 89 d5             	mov    %rdx,%r13
  402133:	48 89 d3             	mov    %rdx,%rbx
  402136:	eb 28                	jmp    402160 <rio_writen+0x40>
  402138:	48 89 da             	mov    %rbx,%rdx
  40213b:	48 89 ee             	mov    %rbp,%rsi
  40213e:	44 89 e7             	mov    %r12d,%edi
  402141:	e8 aa eb ff ff       	callq  400cf0 <write@plt>
  402146:	48 85 c0             	test   %rax,%rax
  402149:	7f 0f                	jg     40215a <rio_writen+0x3a>
  40214b:	e8 50 eb ff ff       	callq  400ca0 <__errno_location@plt>
  402150:	83 38 04             	cmpl   $0x4,(%rax)
  402153:	75 15                	jne    40216a <rio_writen+0x4a>
  402155:	b8 00 00 00 00       	mov    $0x0,%eax
  40215a:	48 29 c3             	sub    %rax,%rbx
  40215d:	48 01 c5             	add    %rax,%rbp
  402160:	48 85 db             	test   %rbx,%rbx
  402163:	75 d3                	jne    402138 <rio_writen+0x18>
  402165:	4c 89 e8             	mov    %r13,%rax
  402168:	eb 07                	jmp    402171 <rio_writen+0x51>
  40216a:	48 c7 c0 ff ff ff ff 	mov    $0xffffffffffffffff,%rax
  402171:	48 83 c4 08          	add    $0x8,%rsp
  402175:	5b                   	pop    %rbx
  402176:	5d                   	pop    %rbp
  402177:	41 5c                	pop    %r12
  402179:	41 5d                	pop    %r13
  40217b:	c3                   	retq   

000000000040217c <rio_read>:
  40217c:	41 56                	push   %r14
  40217e:	41 55                	push   %r13
  402180:	41 54                	push   %r12
  402182:	55                   	push   %rbp
  402183:	53                   	push   %rbx
  402184:	48 89 fb             	mov    %rdi,%rbx
  402187:	49 89 f6             	mov    %rsi,%r14
  40218a:	49 89 d5             	mov    %rdx,%r13
  40218d:	4c 8d 67 10          	lea    0x10(%rdi),%r12
  402191:	eb 2a                	jmp    4021bd <rio_read+0x41>
  402193:	8b 3b                	mov    (%rbx),%edi
  402195:	ba 00 20 00 00       	mov    $0x2000,%edx
  40219a:	4c 89 e6             	mov    %r12,%rsi
  40219d:	e8 ae eb ff ff       	callq  400d50 <read@plt>
  4021a2:	89 43 04             	mov    %eax,0x4(%rbx)
  4021a5:	85 c0                	test   %eax,%eax
  4021a7:	79 0c                	jns    4021b5 <rio_read+0x39>
  4021a9:	e8 f2 ea ff ff       	callq  400ca0 <__errno_location@plt>
  4021ae:	83 38 04             	cmpl   $0x4,(%rax)
  4021b1:	74 0a                	je     4021bd <rio_read+0x41>
  4021b3:	eb 37                	jmp    4021ec <rio_read+0x70>
  4021b5:	85 c0                	test   %eax,%eax
  4021b7:	74 3c                	je     4021f5 <rio_read+0x79>
  4021b9:	4c 89 63 08          	mov    %r12,0x8(%rbx)
  4021bd:	8b 6b 04             	mov    0x4(%rbx),%ebp
  4021c0:	85 ed                	test   %ebp,%ebp
  4021c2:	7e cf                	jle    402193 <rio_read+0x17>
  4021c4:	89 e8                	mov    %ebp,%eax
  4021c6:	4c 39 e8             	cmp    %r13,%rax
  4021c9:	72 03                	jb     4021ce <rio_read+0x52>
  4021cb:	44 89 ed             	mov    %r13d,%ebp
  4021ce:	4c 63 e5             	movslq %ebp,%r12
  4021d1:	48 8b 73 08          	mov    0x8(%rbx),%rsi
  4021d5:	4c 89 e2             	mov    %r12,%rdx
  4021d8:	4c 89 f7             	mov    %r14,%rdi
  4021db:	e8 e0 eb ff ff       	callq  400dc0 <memcpy@plt>
  4021e0:	4c 01 63 08          	add    %r12,0x8(%rbx)
  4021e4:	29 6b 04             	sub    %ebp,0x4(%rbx)
  4021e7:	4c 89 e0             	mov    %r12,%rax
  4021ea:	eb 0e                	jmp    4021fa <rio_read+0x7e>
  4021ec:	48 c7 c0 ff ff ff ff 	mov    $0xffffffffffffffff,%rax
  4021f3:	eb 05                	jmp    4021fa <rio_read+0x7e>
  4021f5:	b8 00 00 00 00       	mov    $0x0,%eax
  4021fa:	5b                   	pop    %rbx
  4021fb:	5d                   	pop    %rbp
  4021fc:	41 5c                	pop    %r12
  4021fe:	41 5d                	pop    %r13
  402200:	41 5e                	pop    %r14
  402202:	c3                   	retq   

0000000000402203 <rio_readlineb>:
  402203:	41 55                	push   %r13
  402205:	41 54                	push   %r12
  402207:	55                   	push   %rbp
  402208:	53                   	push   %rbx
  402209:	48 83 ec 18          	sub    $0x18,%rsp
  40220d:	49 89 fd             	mov    %rdi,%r13
  402210:	48 89 f5             	mov    %rsi,%rbp
  402213:	49 89 d4             	mov    %rdx,%r12
  402216:	bb 01 00 00 00       	mov    $0x1,%ebx
  40221b:	eb 3e                	jmp    40225b <rio_readlineb+0x58>
  40221d:	ba 01 00 00 00       	mov    $0x1,%edx
  402222:	48 8d 74 24 0f       	lea    0xf(%rsp),%rsi
  402227:	4c 89 ef             	mov    %r13,%rdi
  40222a:	e8 4d ff ff ff       	callq  40217c <rio_read>
  40222f:	83 f8 01             	cmp    $0x1,%eax
  402232:	75 12                	jne    402246 <rio_readlineb+0x43>
  402234:	48 8d 55 01          	lea    0x1(%rbp),%rdx
  402238:	0f b6 44 24 0f       	movzbl 0xf(%rsp),%eax
  40223d:	88 45 00             	mov    %al,0x0(%rbp)
  402240:	3c 0a                	cmp    $0xa,%al
  402242:	75 10                	jne    402254 <rio_readlineb+0x51>
  402244:	eb 1c                	jmp    402262 <rio_readlineb+0x5f>
  402246:	85 c0                	test   %eax,%eax
  402248:	75 24                	jne    40226e <rio_readlineb+0x6b>
  40224a:	48 83 fb 01          	cmp    $0x1,%rbx
  40224e:	66 90                	xchg   %ax,%ax
  402250:	75 13                	jne    402265 <rio_readlineb+0x62>
  402252:	eb 23                	jmp    402277 <rio_readlineb+0x74>
  402254:	48 83 c3 01          	add    $0x1,%rbx
  402258:	48 89 d5             	mov    %rdx,%rbp
  40225b:	4c 39 e3             	cmp    %r12,%rbx
  40225e:	72 bd                	jb     40221d <rio_readlineb+0x1a>
  402260:	eb 03                	jmp    402265 <rio_readlineb+0x62>
  402262:	48 89 d5             	mov    %rdx,%rbp
  402265:	c6 45 00 00          	movb   $0x0,0x0(%rbp)
  402269:	48 89 d8             	mov    %rbx,%rax
  40226c:	eb 0e                	jmp    40227c <rio_readlineb+0x79>
  40226e:	48 c7 c0 ff ff ff ff 	mov    $0xffffffffffffffff,%rax
  402275:	eb 05                	jmp    40227c <rio_readlineb+0x79>
  402277:	b8 00 00 00 00       	mov    $0x0,%eax
  40227c:	48 83 c4 18          	add    $0x18,%rsp
  402280:	5b                   	pop    %rbx
  402281:	5d                   	pop    %rbp
  402282:	41 5c                	pop    %r12
  402284:	41 5d                	pop    %r13
  402286:	c3                   	retq   

0000000000402287 <urlencode>:
  402287:	41 54                	push   %r12
  402289:	55                   	push   %rbp
  40228a:	53                   	push   %rbx
  40228b:	48 83 ec 10          	sub    $0x10,%rsp
  40228f:	48 89 fb             	mov    %rdi,%rbx
  402292:	48 89 f5             	mov    %rsi,%rbp
  402295:	64 48 8b 04 25 28 00 	mov    %fs:0x28,%rax
  40229c:	00 00 
  40229e:	48 89 44 24 08       	mov    %rax,0x8(%rsp)
  4022a3:	31 c0                	xor    %eax,%eax
  4022a5:	48 c7 c1 ff ff ff ff 	mov    $0xffffffffffffffff,%rcx
  4022ac:	f2 ae                	repnz scas %es:(%rdi),%al
  4022ae:	48 f7 d1             	not    %rcx
  4022b1:	8d 41 ff             	lea    -0x1(%rcx),%eax
  4022b4:	e9 aa 00 00 00       	jmpq   402363 <urlencode+0xdc>
  4022b9:	44 0f b6 03          	movzbl (%rbx),%r8d
  4022bd:	41 80 f8 2a          	cmp    $0x2a,%r8b
  4022c1:	0f 94 c2             	sete   %dl
  4022c4:	41 80 f8 2d          	cmp    $0x2d,%r8b
  4022c8:	0f 94 c0             	sete   %al
  4022cb:	08 c2                	or     %al,%dl
  4022cd:	75 24                	jne    4022f3 <urlencode+0x6c>
  4022cf:	41 80 f8 2e          	cmp    $0x2e,%r8b
  4022d3:	74 1e                	je     4022f3 <urlencode+0x6c>
  4022d5:	41 80 f8 5f          	cmp    $0x5f,%r8b
  4022d9:	74 18                	je     4022f3 <urlencode+0x6c>
  4022db:	41 8d 40 d0          	lea    -0x30(%r8),%eax
  4022df:	3c 09                	cmp    $0x9,%al
  4022e1:	76 10                	jbe    4022f3 <urlencode+0x6c>
  4022e3:	41 8d 40 bf          	lea    -0x41(%r8),%eax
  4022e7:	3c 19                	cmp    $0x19,%al
  4022e9:	76 08                	jbe    4022f3 <urlencode+0x6c>
  4022eb:	41 8d 40 9f          	lea    -0x61(%r8),%eax
  4022ef:	3c 19                	cmp    $0x19,%al
  4022f1:	77 0a                	ja     4022fd <urlencode+0x76>
  4022f3:	44 88 45 00          	mov    %r8b,0x0(%rbp)
  4022f7:	48 8d 6d 01          	lea    0x1(%rbp),%rbp
  4022fb:	eb 5f                	jmp    40235c <urlencode+0xd5>
  4022fd:	41 80 f8 20          	cmp    $0x20,%r8b
  402301:	75 0a                	jne    40230d <urlencode+0x86>
  402303:	c6 45 00 2b          	movb   $0x2b,0x0(%rbp)
  402307:	48 8d 6d 01          	lea    0x1(%rbp),%rbp
  40230b:	eb 4f                	jmp    40235c <urlencode+0xd5>
  40230d:	41 8d 40 e0          	lea    -0x20(%r8),%eax
  402311:	3c 5f                	cmp    $0x5f,%al
  402313:	0f 96 c2             	setbe  %dl
  402316:	41 80 f8 09          	cmp    $0x9,%r8b
  40231a:	0f 94 c0             	sete   %al
  40231d:	08 c2                	or     %al,%dl
  40231f:	74 50                	je     402371 <urlencode+0xea>
  402321:	45 0f b6 c0          	movzbl %r8b,%r8d
  402325:	b9 18 36 40 00       	mov    $0x403618,%ecx
  40232a:	ba 08 00 00 00       	mov    $0x8,%edx
  40232f:	be 01 00 00 00       	mov    $0x1,%esi
  402334:	48 89 e7             	mov    %rsp,%rdi
  402337:	b8 00 00 00 00       	mov    $0x0,%eax
  40233c:	e8 5f eb ff ff       	callq  400ea0 <__sprintf_chk@plt>
  402341:	0f b6 04 24          	movzbl (%rsp),%eax
  402345:	88 45 00             	mov    %al,0x0(%rbp)
  402348:	0f b6 44 24 01       	movzbl 0x1(%rsp),%eax
  40234d:	88 45 01             	mov    %al,0x1(%rbp)
  402350:	0f b6 44 24 02       	movzbl 0x2(%rsp),%eax
  402355:	88 45 02             	mov    %al,0x2(%rbp)
  402358:	48 8d 6d 03          	lea    0x3(%rbp),%rbp
  40235c:	48 83 c3 01          	add    $0x1,%rbx
  402360:	44 89 e0             	mov    %r12d,%eax
  402363:	44 8d 60 ff          	lea    -0x1(%rax),%r12d
  402367:	85 c0                	test   %eax,%eax
  402369:	0f 85 4a ff ff ff    	jne    4022b9 <urlencode+0x32>
  40236f:	eb 05                	jmp    402376 <urlencode+0xef>
  402371:	b8 ff ff ff ff       	mov    $0xffffffff,%eax
  402376:	48 8b 74 24 08       	mov    0x8(%rsp),%rsi
  40237b:	64 48 33 34 25 28 00 	xor    %fs:0x28,%rsi
  402382:	00 00 
  402384:	74 05                	je     40238b <urlencode+0x104>
  402386:	e8 75 e9 ff ff       	callq  400d00 <__stack_chk_fail@plt>
  40238b:	48 83 c4 10          	add    $0x10,%rsp
  40238f:	5b                   	pop    %rbx
  402390:	5d                   	pop    %rbp
  402391:	41 5c                	pop    %r12
  402393:	c3                   	retq   

0000000000402394 <submitr>:
  402394:	41 57                	push   %r15
  402396:	41 56                	push   %r14
  402398:	41 55                	push   %r13
  40239a:	41 54                	push   %r12
  40239c:	55                   	push   %rbp
  40239d:	53                   	push   %rbx
  40239e:	48 81 ec 68 a0 00 00 	sub    $0xa068,%rsp
  4023a5:	49 89 fc             	mov    %rdi,%r12
  4023a8:	89 74 24 14          	mov    %esi,0x14(%rsp)
  4023ac:	49 89 d7             	mov    %rdx,%r15
  4023af:	49 89 ce             	mov    %rcx,%r14
  4023b2:	4c 89 44 24 18       	mov    %r8,0x18(%rsp)
  4023b7:	4d 89 cd             	mov    %r9,%r13
  4023ba:	48 8b 9c 24 a0 a0 00 	mov    0xa0a0(%rsp),%rbx
  4023c1:	00 
  4023c2:	64 48 8b 04 25 28 00 	mov    %fs:0x28,%rax
  4023c9:	00 00 
  4023cb:	48 89 84 24 58 a0 00 	mov    %rax,0xa058(%rsp)
  4023d2:	00 
  4023d3:	31 c0                	xor    %eax,%eax
  4023d5:	c7 44 24 2c 00 00 00 	movl   $0x0,0x2c(%rsp)
  4023dc:	00 
  4023dd:	ba 00 00 00 00       	mov    $0x0,%edx
  4023e2:	be 01 00 00 00       	mov    $0x1,%esi
  4023e7:	bf 02 00 00 00       	mov    $0x2,%edi
  4023ec:	e8 bf ea ff ff       	callq  400eb0 <socket@plt>
  4023f1:	89 c5                	mov    %eax,%ebp
  4023f3:	85 c0                	test   %eax,%eax
  4023f5:	79 4e                	jns    402445 <submitr+0xb1>
  4023f7:	48 b8 45 72 72 6f 72 	movabs $0x43203a726f727245,%rax
  4023fe:	3a 20 43 
  402401:	48 89 03             	mov    %rax,(%rbx)
  402404:	48 b8 6c 69 65 6e 74 	movabs $0x6e7520746e65696c,%rax
  40240b:	20 75 6e 
  40240e:	48 89 43 08          	mov    %rax,0x8(%rbx)
  402412:	48 b8 61 62 6c 65 20 	movabs $0x206f7420656c6261,%rax
  402419:	74 6f 20 
  40241c:	48 89 43 10          	mov    %rax,0x10(%rbx)
  402420:	48 b8 63 72 65 61 74 	movabs $0x7320657461657263,%rax
  402427:	65 20 73 
  40242a:	48 89 43 18          	mov    %rax,0x18(%rbx)
  40242e:	c7 43 20 6f 63 6b 65 	movl   $0x656b636f,0x20(%rbx)
  402435:	66 c7 43 24 74 00    	movw   $0x74,0x24(%rbx)
  40243b:	b8 ff ff ff ff       	mov    $0xffffffff,%eax
  402440:	e9 84 06 00 00       	jmpq   402ac9 <submitr+0x735>
  402445:	4c 89 e7             	mov    %r12,%rdi
  402448:	e8 33 e9 ff ff       	callq  400d80 <gethostbyname@plt>
  40244d:	48 85 c0             	test   %rax,%rax
  402450:	75 67                	jne    4024b9 <submitr+0x125>
  402452:	48 b8 45 72 72 6f 72 	movabs $0x44203a726f727245,%rax
  402459:	3a 20 44 
  40245c:	48 89 03             	mov    %rax,(%rbx)
  40245f:	48 b8 4e 53 20 69 73 	movabs $0x6e7520736920534e,%rax
  402466:	20 75 6e 
  402469:	48 89 43 08          	mov    %rax,0x8(%rbx)
  40246d:	48 b8 61 62 6c 65 20 	movabs $0x206f7420656c6261,%rax
  402474:	74 6f 20 
  402477:	48 89 43 10          	mov    %rax,0x10(%rbx)
  40247b:	48 b8 72 65 73 6f 6c 	movabs $0x2065766c6f736572,%rax
  402482:	76 65 20 
  402485:	48 89 43 18          	mov    %rax,0x18(%rbx)
  402489:	48 b8 73 65 72 76 65 	movabs $0x6120726576726573,%rax
  402490:	72 20 61 
  402493:	48 89 43 20          	mov    %rax,0x20(%rbx)
  402497:	c7 43 28 64 64 72 65 	movl   $0x65726464,0x28(%rbx)
  40249e:	66 c7 43 2c 73 73    	movw   $0x7373,0x2c(%rbx)
  4024a4:	c6 43 2e 00          	movb   $0x0,0x2e(%rbx)
  4024a8:	89 ef                	mov    %ebp,%edi
  4024aa:	e8 91 e8 ff ff       	callq  400d40 <close@plt>
  4024af:	b8 ff ff ff ff       	mov    $0xffffffff,%eax
  4024b4:	e9 10 06 00 00       	jmpq   402ac9 <submitr+0x735>
  4024b9:	48 c7 44 24 30 00 00 	movq   $0x0,0x30(%rsp)
  4024c0:	00 00 
  4024c2:	48 c7 44 24 38 00 00 	movq   $0x0,0x38(%rsp)
  4024c9:	00 00 
  4024cb:	66 c7 44 24 30 02 00 	movw   $0x2,0x30(%rsp)
  4024d2:	48 63 50 14          	movslq 0x14(%rax),%rdx
  4024d6:	48 8b 40 18          	mov    0x18(%rax),%rax
  4024da:	48 8b 30             	mov    (%rax),%rsi
  4024dd:	48 8d 7c 24 34       	lea    0x34(%rsp),%rdi
  4024e2:	b9 0c 00 00 00       	mov    $0xc,%ecx
  4024e7:	e8 a4 e8 ff ff       	callq  400d90 <__memmove_chk@plt>
  4024ec:	0f b7 44 24 14       	movzwl 0x14(%rsp),%eax
  4024f1:	66 c1 c8 08          	ror    $0x8,%ax
  4024f5:	66 89 44 24 32       	mov    %ax,0x32(%rsp)
  4024fa:	ba 10 00 00 00       	mov    $0x10,%edx
  4024ff:	48 8d 74 24 30       	lea    0x30(%rsp),%rsi
  402504:	89 ef                	mov    %ebp,%edi
  402506:	e8 75 e9 ff ff       	callq  400e80 <connect@plt>
  40250b:	85 c0                	test   %eax,%eax
  40250d:	79 59                	jns    402568 <submitr+0x1d4>
  40250f:	48 b8 45 72 72 6f 72 	movabs $0x55203a726f727245,%rax
  402516:	3a 20 55 
  402519:	48 89 03             	mov    %rax,(%rbx)
  40251c:	48 b8 6e 61 62 6c 65 	movabs $0x6f7420656c62616e,%rax
  402523:	20 74 6f 
  402526:	48 89 43 08          	mov    %rax,0x8(%rbx)
  40252a:	48 b8 20 63 6f 6e 6e 	movabs $0x7463656e6e6f6320,%rax
  402531:	65 63 74 
  402534:	48 89 43 10          	mov    %rax,0x10(%rbx)
  402538:	48 b8 20 74 6f 20 74 	movabs $0x20656874206f7420,%rax
  40253f:	68 65 20 
  402542:	48 89 43 18          	mov    %rax,0x18(%rbx)
  402546:	c7 43 20 73 65 72 76 	movl   $0x76726573,0x20(%rbx)
  40254d:	66 c7 43 24 65 72    	movw   $0x7265,0x24(%rbx)
  402553:	c6 43 26 00          	movb   $0x0,0x26(%rbx)
  402557:	89 ef                	mov    %ebp,%edi
  402559:	e8 e2 e7 ff ff       	callq  400d40 <close@plt>
  40255e:	b8 ff ff ff ff       	mov    $0xffffffff,%eax
  402563:	e9 61 05 00 00       	jmpq   402ac9 <submitr+0x735>
  402568:	48 c7 c2 ff ff ff ff 	mov    $0xffffffffffffffff,%rdx
  40256f:	4c 89 ef             	mov    %r13,%rdi
  402572:	b8 00 00 00 00       	mov    $0x0,%eax
  402577:	48 89 d1             	mov    %rdx,%rcx
  40257a:	f2 ae                	repnz scas %es:(%rdi),%al
  40257c:	48 f7 d1             	not    %rcx
  40257f:	48 89 ce             	mov    %rcx,%rsi
  402582:	4c 89 ff             	mov    %r15,%rdi
  402585:	48 89 d1             	mov    %rdx,%rcx
  402588:	f2 ae                	repnz scas %es:(%rdi),%al
  40258a:	48 f7 d1             	not    %rcx
  40258d:	49 89 c8             	mov    %rcx,%r8
  402590:	4c 89 f7             	mov    %r14,%rdi
  402593:	48 89 d1             	mov    %rdx,%rcx
  402596:	f2 ae                	repnz scas %es:(%rdi),%al
  402598:	49 29 c8             	sub    %rcx,%r8
  40259b:	48 8b 7c 24 18       	mov    0x18(%rsp),%rdi
  4025a0:	48 89 d1             	mov    %rdx,%rcx
  4025a3:	f2 ae                	repnz scas %es:(%rdi),%al
  4025a5:	49 29 c8             	sub    %rcx,%r8
  4025a8:	48 8d 44 76 fd       	lea    -0x3(%rsi,%rsi,2),%rax
  4025ad:	49 8d 44 00 7b       	lea    0x7b(%r8,%rax,1),%rax
  4025b2:	48 3d 00 20 00 00    	cmp    $0x2000,%rax
  4025b8:	76 72                	jbe    40262c <submitr+0x298>
  4025ba:	48 b8 45 72 72 6f 72 	movabs $0x52203a726f727245,%rax
  4025c1:	3a 20 52 
  4025c4:	48 89 03             	mov    %rax,(%rbx)
  4025c7:	48 b8 65 73 75 6c 74 	movabs $0x747320746c757365,%rax
  4025ce:	20 73 74 
  4025d1:	48 89 43 08          	mov    %rax,0x8(%rbx)
  4025d5:	48 b8 72 69 6e 67 20 	movabs $0x6f6f7420676e6972,%rax
  4025dc:	74 6f 6f 
  4025df:	48 89 43 10          	mov    %rax,0x10(%rbx)
  4025e3:	48 b8 20 6c 61 72 67 	movabs $0x202e656772616c20,%rax
  4025ea:	65 2e 20 
  4025ed:	48 89 43 18          	mov    %rax,0x18(%rbx)
  4025f1:	48 b8 49 6e 63 72 65 	movabs $0x6573616572636e49,%rax
  4025f8:	61 73 65 
  4025fb:	48 89 43 20          	mov    %rax,0x20(%rbx)
  4025ff:	48 b8 20 53 55 42 4d 	movabs $0x5254494d42555320,%rax
  402606:	49 54 52 
  402609:	48 89 43 28          	mov    %rax,0x28(%rbx)
  40260d:	48 b8 5f 4d 41 58 42 	movabs $0x46554258414d5f,%rax
  402614:	55 46 00 
  402617:	48 89 43 30          	mov    %rax,0x30(%rbx)
  40261b:	89 ef                	mov    %ebp,%edi
  40261d:	e8 1e e7 ff ff       	callq  400d40 <close@plt>
  402622:	b8 ff ff ff ff       	mov    $0xffffffff,%eax
  402627:	e9 9d 04 00 00       	jmpq   402ac9 <submitr+0x735>
  40262c:	48 8d b4 24 40 20 00 	lea    0x2040(%rsp),%rsi
  402633:	00 
  402634:	b9 00 04 00 00       	mov    $0x400,%ecx
  402639:	b8 00 00 00 00       	mov    $0x0,%eax
  40263e:	48 89 f7             	mov    %rsi,%rdi
  402641:	f3 48 ab             	rep stos %rax,%es:(%rdi)
  402644:	4c 89 ef             	mov    %r13,%rdi
  402647:	e8 3b fc ff ff       	callq  402287 <urlencode>
  40264c:	85 c0                	test   %eax,%eax
  40264e:	0f 89 8a 00 00 00    	jns    4026de <submitr+0x34a>
  402654:	48 b8 45 72 72 6f 72 	movabs $0x52203a726f727245,%rax
  40265b:	3a 20 52 
  40265e:	48 89 03             	mov    %rax,(%rbx)
  402661:	48 b8 65 73 75 6c 74 	movabs $0x747320746c757365,%rax
  402668:	20 73 74 
  40266b:	48 89 43 08          	mov    %rax,0x8(%rbx)
  40266f:	48 b8 72 69 6e 67 20 	movabs $0x6e6f6320676e6972,%rax
  402676:	63 6f 6e 
  402679:	48 89 43 10          	mov    %rax,0x10(%rbx)
  40267d:	48 b8 74 61 69 6e 73 	movabs $0x6e6120736e696174,%rax
  402684:	20 61 6e 
  402687:	48 89 43 18          	mov    %rax,0x18(%rbx)
  40268b:	48 b8 20 69 6c 6c 65 	movabs $0x6c6167656c6c6920,%rax
  402692:	67 61 6c 
  402695:	48 89 43 20          	mov    %rax,0x20(%rbx)
  402699:	48 b8 20 6f 72 20 75 	movabs $0x72706e7520726f20,%rax
  4026a0:	6e 70 72 
  4026a3:	48 89 43 28          	mov    %rax,0x28(%rbx)
  4026a7:	48 b8 69 6e 74 61 62 	movabs $0x20656c6261746e69,%rax
  4026ae:	6c 65 20 
  4026b1:	48 89 43 30          	mov    %rax,0x30(%rbx)
  4026b5:	48 b8 63 68 61 72 61 	movabs $0x6574636172616863,%rax
  4026bc:	63 74 65 
  4026bf:	48 89 43 38          	mov    %rax,0x38(%rbx)
  4026c3:	66 c7 43 40 72 2e    	movw   $0x2e72,0x40(%rbx)
  4026c9:	c6 43 42 00          	movb   $0x0,0x42(%rbx)
  4026cd:	89 ef                	mov    %ebp,%edi
  4026cf:	e8 6c e6 ff ff       	callq  400d40 <close@plt>
  4026d4:	b8 ff ff ff ff       	mov    $0xffffffff,%eax
  4026d9:	e9 eb 03 00 00       	jmpq   402ac9 <submitr+0x735>
  4026de:	4c 89 64 24 08       	mov    %r12,0x8(%rsp)
  4026e3:	48 8d 84 24 40 20 00 	lea    0x2040(%rsp),%rax
  4026ea:	00 
  4026eb:	48 89 04 24          	mov    %rax,(%rsp)
  4026ef:	4d 89 f9             	mov    %r15,%r9
  4026f2:	4d 89 f0             	mov    %r14,%r8
  4026f5:	b9 a8 35 40 00       	mov    $0x4035a8,%ecx
  4026fa:	ba 00 20 00 00       	mov    $0x2000,%edx
  4026ff:	be 01 00 00 00       	mov    $0x1,%esi
  402704:	48 8d 7c 24 40       	lea    0x40(%rsp),%rdi
  402709:	b8 00 00 00 00       	mov    $0x0,%eax
  40270e:	e8 8d e7 ff ff       	callq  400ea0 <__sprintf_chk@plt>
  402713:	48 8d 7c 24 40       	lea    0x40(%rsp),%rdi
  402718:	b8 00 00 00 00       	mov    $0x0,%eax
  40271d:	48 c7 c1 ff ff ff ff 	mov    $0xffffffffffffffff,%rcx
  402724:	f2 ae                	repnz scas %es:(%rdi),%al
  402726:	48 f7 d1             	not    %rcx
  402729:	48 8d 51 ff          	lea    -0x1(%rcx),%rdx
  40272d:	48 8d 74 24 40       	lea    0x40(%rsp),%rsi
  402732:	89 ef                	mov    %ebp,%edi
  402734:	e8 e7 f9 ff ff       	callq  402120 <rio_writen>
  402739:	48 85 c0             	test   %rax,%rax
  40273c:	79 6e                	jns    4027ac <submitr+0x418>
  40273e:	48 b8 45 72 72 6f 72 	movabs $0x43203a726f727245,%rax
  402745:	3a 20 43 
  402748:	48 89 03             	mov    %rax,(%rbx)
  40274b:	48 b8 6c 69 65 6e 74 	movabs $0x6e7520746e65696c,%rax
  402752:	20 75 6e 
  402755:	48 89 43 08          	mov    %rax,0x8(%rbx)
  402759:	48 b8 61 62 6c 65 20 	movabs $0x206f7420656c6261,%rax
  402760:	74 6f 20 
  402763:	48 89 43 10          	mov    %rax,0x10(%rbx)
  402767:	48 b8 77 72 69 74 65 	movabs $0x6f74206574697277,%rax
  40276e:	20 74 6f 
  402771:	48 89 43 18          	mov    %rax,0x18(%rbx)
  402775:	48 b8 20 74 68 65 20 	movabs $0x7365722065687420,%rax
  40277c:	72 65 73 
  40277f:	48 89 43 20          	mov    %rax,0x20(%rbx)
  402783:	48 b8 75 6c 74 20 73 	movabs $0x7672657320746c75,%rax
  40278a:	65 72 76 
  40278d:	48 89 43 28          	mov    %rax,0x28(%rbx)
  402791:	66 c7 43 30 65 72    	movw   $0x7265,0x30(%rbx)
  402797:	c6 43 32 00          	movb   $0x0,0x32(%rbx)
  40279b:	89 ef                	mov    %ebp,%edi
  40279d:	e8 9e e5 ff ff       	callq  400d40 <close@plt>
  4027a2:	b8 ff ff ff ff       	mov    $0xffffffff,%eax
  4027a7:	e9 1d 03 00 00       	jmpq   402ac9 <submitr+0x735>
  4027ac:	89 ee                	mov    %ebp,%esi
  4027ae:	48 8d bc 24 40 80 00 	lea    0x8040(%rsp),%rdi
  4027b5:	00 
  4027b6:	e8 25 f9 ff ff       	callq  4020e0 <rio_readinitb>
  4027bb:	ba 00 20 00 00       	mov    $0x2000,%edx
  4027c0:	48 8d 74 24 40       	lea    0x40(%rsp),%rsi
  4027c5:	48 8d bc 24 40 80 00 	lea    0x8040(%rsp),%rdi
  4027cc:	00 
  4027cd:	e8 31 fa ff ff       	callq  402203 <rio_readlineb>
  4027d2:	48 85 c0             	test   %rax,%rax
  4027d5:	7f 7d                	jg     402854 <submitr+0x4c0>
  4027d7:	48 b8 45 72 72 6f 72 	movabs $0x43203a726f727245,%rax
  4027de:	3a 20 43 
  4027e1:	48 89 03             	mov    %rax,(%rbx)
  4027e4:	48 b8 6c 69 65 6e 74 	movabs $0x6e7520746e65696c,%rax
  4027eb:	20 75 6e 
  4027ee:	48 89 43 08          	mov    %rax,0x8(%rbx)
  4027f2:	48 b8 61 62 6c 65 20 	movabs $0x206f7420656c6261,%rax
  4027f9:	74 6f 20 
  4027fc:	48 89 43 10          	mov    %rax,0x10(%rbx)
  402800:	48 b8 72 65 61 64 20 	movabs $0x7269662064616572,%rax
  402807:	66 69 72 
  40280a:	48 89 43 18          	mov    %rax,0x18(%rbx)
  40280e:	48 b8 73 74 20 68 65 	movabs $0x6564616568207473,%rax
  402815:	61 64 65 
  402818:	48 89 43 20          	mov    %rax,0x20(%rbx)
  40281c:	48 b8 72 20 66 72 6f 	movabs $0x72206d6f72662072,%rax
  402823:	6d 20 72 
  402826:	48 89 43 28          	mov    %rax,0x28(%rbx)
  40282a:	48 b8 65 73 75 6c 74 	movabs $0x657320746c757365,%rax
  402831:	20 73 65 
  402834:	48 89 43 30          	mov    %rax,0x30(%rbx)
  402838:	c7 43 38 72 76 65 72 	movl   $0x72657672,0x38(%rbx)
  40283f:	c6 43 3c 00          	movb   $0x0,0x3c(%rbx)
  402843:	89 ef                	mov    %ebp,%edi
  402845:	e8 f6 e4 ff ff       	callq  400d40 <close@plt>
  40284a:	b8 ff ff ff ff       	mov    $0xffffffff,%eax
  40284f:	e9 75 02 00 00       	jmpq   402ac9 <submitr+0x735>
  402854:	4c 8d 84 24 40 60 00 	lea    0x6040(%rsp),%r8
  40285b:	00 
  40285c:	48 8d 4c 24 2c       	lea    0x2c(%rsp),%rcx
  402861:	48 8d 94 24 40 40 00 	lea    0x4040(%rsp),%rdx
  402868:	00 
  402869:	be 1f 36 40 00       	mov    $0x40361f,%esi
  40286e:	48 8d 7c 24 40       	lea    0x40(%rsp),%rdi
  402873:	b8 00 00 00 00       	mov    $0x0,%eax
  402878:	e8 83 e5 ff ff       	callq  400e00 <__isoc99_sscanf@plt>
  40287d:	41 bc 0d 00 00 00    	mov    $0xd,%r12d
  402883:	41 bd 0a 00 00 00    	mov    $0xa,%r13d
  402889:	e9 95 00 00 00       	jmpq   402923 <submitr+0x58f>
  40288e:	ba 00 20 00 00       	mov    $0x2000,%edx
  402893:	48 8d 74 24 40       	lea    0x40(%rsp),%rsi
  402898:	48 8d bc 24 40 80 00 	lea    0x8040(%rsp),%rdi
  40289f:	00 
  4028a0:	e8 5e f9 ff ff       	callq  402203 <rio_readlineb>
  4028a5:	48 85 c0             	test   %rax,%rax
  4028a8:	7f 79                	jg     402923 <submitr+0x58f>
  4028aa:	48 b8 45 72 72 6f 72 	movabs $0x43203a726f727245,%rax
  4028b1:	3a 20 43 
  4028b4:	48 89 03             	mov    %rax,(%rbx)
  4028b7:	48 b8 6c 69 65 6e 74 	movabs $0x6e7520746e65696c,%rax
  4028be:	20 75 6e 
  4028c1:	48 89 43 08          	mov    %rax,0x8(%rbx)
  4028c5:	48 b8 61 62 6c 65 20 	movabs $0x206f7420656c6261,%rax
  4028cc:	74 6f 20 
  4028cf:	48 89 43 10          	mov    %rax,0x10(%rbx)
  4028d3:	48 b8 72 65 61 64 20 	movabs $0x6165682064616572,%rax
  4028da:	68 65 61 
  4028dd:	48 89 43 18          	mov    %rax,0x18(%rbx)
  4028e1:	48 b8 64 65 72 73 20 	movabs $0x6f72662073726564,%rax
  4028e8:	66 72 6f 
  4028eb:	48 89 43 20          	mov    %rax,0x20(%rbx)
  4028ef:	48 b8 6d 20 74 68 65 	movabs $0x657220656874206d,%rax
  4028f6:	20 72 65 
  4028f9:	48 89 43 28          	mov    %rax,0x28(%rbx)
  4028fd:	48 b8 73 75 6c 74 20 	movabs $0x72657320746c7573,%rax
  402904:	73 65 72 
  402907:	48 89 43 30          	mov    %rax,0x30(%rbx)
  40290b:	c7 43 38 76 65 72 00 	movl   $0x726576,0x38(%rbx)
  402912:	89 ef                	mov    %ebp,%edi
  402914:	e8 27 e4 ff ff       	callq  400d40 <close@plt>
  402919:	b8 ff ff ff ff       	mov    $0xffffffff,%eax
  40291e:	e9 a6 01 00 00       	jmpq   402ac9 <submitr+0x735>
  402923:	0f b6 44 24 40       	movzbl 0x40(%rsp),%eax
  402928:	44 89 e6             	mov    %r12d,%esi
  40292b:	29 c6                	sub    %eax,%esi
  40292d:	89 f0                	mov    %esi,%eax
  40292f:	75 15                	jne    402946 <submitr+0x5b2>
  402931:	0f b6 44 24 41       	movzbl 0x41(%rsp),%eax
  402936:	44 89 ea             	mov    %r13d,%edx
  402939:	29 c2                	sub    %eax,%edx
  40293b:	89 d0                	mov    %edx,%eax
  40293d:	75 07                	jne    402946 <submitr+0x5b2>
  40293f:	0f b6 44 24 42       	movzbl 0x42(%rsp),%eax
  402944:	f7 d8                	neg    %eax
  402946:	85 c0                	test   %eax,%eax
  402948:	0f 85 40 ff ff ff    	jne    40288e <submitr+0x4fa>
  40294e:	ba 00 20 00 00       	mov    $0x2000,%edx
  402953:	48 8d 74 24 40       	lea    0x40(%rsp),%rsi
  402958:	48 8d bc 24 40 80 00 	lea    0x8040(%rsp),%rdi
  40295f:	00 
  402960:	e8 9e f8 ff ff       	callq  402203 <rio_readlineb>
  402965:	48 85 c0             	test   %rax,%rax
  402968:	0f 8f 83 00 00 00    	jg     4029f1 <submitr+0x65d>
  40296e:	48 b8 45 72 72 6f 72 	movabs $0x43203a726f727245,%rax
  402975:	3a 20 43 
  402978:	48 89 03             	mov    %rax,(%rbx)
  40297b:	48 b8 6c 69 65 6e 74 	movabs $0x6e7520746e65696c,%rax
  402982:	20 75 6e 
  402985:	48 89 43 08          	mov    %rax,0x8(%rbx)
  402989:	48 b8 61 62 6c 65 20 	movabs $0x206f7420656c6261,%rax
  402990:	74 6f 20 
  402993:	48 89 43 10          	mov    %rax,0x10(%rbx)
  402997:	48 b8 72 65 61 64 20 	movabs $0x6174732064616572,%rax
  40299e:	73 74 61 
  4029a1:	48 89 43 18          	mov    %rax,0x18(%rbx)
  4029a5:	48 b8 74 75 73 20 6d 	movabs $0x7373656d20737574,%rax
  4029ac:	65 73 73 
  4029af:	48 89 43 20          	mov    %rax,0x20(%rbx)
  4029b3:	48 b8 61 67 65 20 66 	movabs $0x6d6f726620656761,%rax
  4029ba:	72 6f 6d 
  4029bd:	48 89 43 28          	mov    %rax,0x28(%rbx)
  4029c1:	48 b8 20 72 65 73 75 	movabs $0x20746c7573657220,%rax
  4029c8:	6c 74 20 
  4029cb:	48 89 43 30          	mov    %rax,0x30(%rbx)
  4029cf:	c7 43 38 73 65 72 76 	movl   $0x76726573,0x38(%rbx)
  4029d6:	66 c7 43 3c 65 72    	movw   $0x7265,0x3c(%rbx)
  4029dc:	c6 43 3e 00          	movb   $0x0,0x3e(%rbx)
  4029e0:	89 ef                	mov    %ebp,%edi
  4029e2:	e8 59 e3 ff ff       	callq  400d40 <close@plt>
  4029e7:	b8 ff ff ff ff       	mov    $0xffffffff,%eax
  4029ec:	e9 d8 00 00 00       	jmpq   402ac9 <submitr+0x735>
  4029f1:	44 8b 44 24 2c       	mov    0x2c(%rsp),%r8d
  4029f6:	41 81 f8 c8 00 00 00 	cmp    $0xc8,%r8d
  4029fd:	74 37                	je     402a36 <submitr+0x6a2>
  4029ff:	4c 8d 8c 24 40 60 00 	lea    0x6040(%rsp),%r9
  402a06:	00 
  402a07:	b9 e8 35 40 00       	mov    $0x4035e8,%ecx
  402a0c:	48 c7 c2 ff ff ff ff 	mov    $0xffffffffffffffff,%rdx
  402a13:	be 01 00 00 00       	mov    $0x1,%esi
  402a18:	48 89 df             	mov    %rbx,%rdi
  402a1b:	b8 00 00 00 00       	mov    $0x0,%eax
  402a20:	e8 7b e4 ff ff       	callq  400ea0 <__sprintf_chk@plt>
  402a25:	89 ef                	mov    %ebp,%edi
  402a27:	e8 14 e3 ff ff       	callq  400d40 <close@plt>
  402a2c:	b8 ff ff ff ff       	mov    $0xffffffff,%eax
  402a31:	e9 93 00 00 00       	jmpq   402ac9 <submitr+0x735>
  402a36:	48 8d 74 24 40       	lea    0x40(%rsp),%rsi
  402a3b:	48 89 df             	mov    %rbx,%rdi
  402a3e:	e8 8d e2 ff ff       	callq  400cd0 <strcpy@plt>
  402a43:	89 ef                	mov    %ebp,%edi
  402a45:	e8 f6 e2 ff ff       	callq  400d40 <close@plt>
  402a4a:	0f b6 03             	movzbl (%rbx),%eax
  402a4d:	ba 4f 00 00 00       	mov    $0x4f,%edx
  402a52:	29 c2                	sub    %eax,%edx
  402a54:	75 22                	jne    402a78 <submitr+0x6e4>
  402a56:	0f b6 4b 01          	movzbl 0x1(%rbx),%ecx
  402a5a:	b8 4b 00 00 00       	mov    $0x4b,%eax
  402a5f:	29 c8                	sub    %ecx,%eax
  402a61:	75 17                	jne    402a7a <submitr+0x6e6>
  402a63:	0f b6 4b 02          	movzbl 0x2(%rbx),%ecx
  402a67:	b8 0a 00 00 00       	mov    $0xa,%eax
  402a6c:	29 c8                	sub    %ecx,%eax
  402a6e:	75 0a                	jne    402a7a <submitr+0x6e6>
  402a70:	0f b6 43 03          	movzbl 0x3(%rbx),%eax
  402a74:	f7 d8                	neg    %eax
  402a76:	eb 02                	jmp    402a7a <submitr+0x6e6>
  402a78:	89 d0                	mov    %edx,%eax
  402a7a:	85 c0                	test   %eax,%eax
  402a7c:	74 38                	je     402ab6 <submitr+0x722>
  402a7e:	bf 30 36 40 00       	mov    $0x403630,%edi
  402a83:	b9 05 00 00 00       	mov    $0x5,%ecx
  402a88:	48 89 de             	mov    %rbx,%rsi
  402a8b:	f3 a6                	repz cmpsb %es:(%rdi),%ds:(%rsi)
  402a8d:	0f 97 c1             	seta   %cl
  402a90:	0f 92 c0             	setb   %al
  402a93:	38 c1                	cmp    %al,%cl
  402a95:	74 26                	je     402abd <submitr+0x729>
  402a97:	85 d2                	test   %edx,%edx
  402a99:	75 10                	jne    402aab <submitr+0x717>
  402a9b:	0f b6 43 01          	movzbl 0x1(%rbx),%eax
  402a9f:	b2 4b                	mov    $0x4b,%dl
  402aa1:	29 c2                	sub    %eax,%edx
  402aa3:	75 06                	jne    402aab <submitr+0x717>
  402aa5:	0f b6 53 02          	movzbl 0x2(%rbx),%edx
  402aa9:	f7 da                	neg    %edx
  402aab:	85 d2                	test   %edx,%edx
  402aad:	75 15                	jne    402ac4 <submitr+0x730>
  402aaf:	b8 00 00 00 00       	mov    $0x0,%eax
  402ab4:	eb 13                	jmp    402ac9 <submitr+0x735>
  402ab6:	b8 00 00 00 00       	mov    $0x0,%eax
  402abb:	eb 0c                	jmp    402ac9 <submitr+0x735>
  402abd:	b8 00 00 00 00       	mov    $0x0,%eax
  402ac2:	eb 05                	jmp    402ac9 <submitr+0x735>
  402ac4:	b8 ff ff ff ff       	mov    $0xffffffff,%eax
  402ac9:	48 8b 9c 24 58 a0 00 	mov    0xa058(%rsp),%rbx
  402ad0:	00 
  402ad1:	64 48 33 1c 25 28 00 	xor    %fs:0x28,%rbx
  402ad8:	00 00 
  402ada:	74 05                	je     402ae1 <submitr+0x74d>
  402adc:	e8 1f e2 ff ff       	callq  400d00 <__stack_chk_fail@plt>
  402ae1:	48 81 c4 68 a0 00 00 	add    $0xa068,%rsp
  402ae8:	5b                   	pop    %rbx
  402ae9:	5d                   	pop    %rbp
  402aea:	41 5c                	pop    %r12
  402aec:	41 5d                	pop    %r13
  402aee:	41 5e                	pop    %r14
  402af0:	41 5f                	pop    %r15
  402af2:	c3                   	retq   

0000000000402af3 <init_timeout>:
  402af3:	53                   	push   %rbx
  402af4:	89 fb                	mov    %edi,%ebx
  402af6:	85 ff                	test   %edi,%edi
  402af8:	74 1f                	je     402b19 <init_timeout+0x26>
  402afa:	85 ff                	test   %edi,%edi
  402afc:	79 05                	jns    402b03 <init_timeout+0x10>
  402afe:	bb 00 00 00 00       	mov    $0x0,%ebx
  402b03:	be f2 20 40 00       	mov    $0x4020f2,%esi
  402b08:	bf 0e 00 00 00       	mov    $0xe,%edi
  402b0d:	e8 5e e2 ff ff       	callq  400d70 <signal@plt>
  402b12:	89 df                	mov    %ebx,%edi
  402b14:	e8 17 e2 ff ff       	callq  400d30 <alarm@plt>
  402b19:	5b                   	pop    %rbx
  402b1a:	c3                   	retq   

0000000000402b1b <init_driver>:
  402b1b:	55                   	push   %rbp
  402b1c:	53                   	push   %rbx
  402b1d:	48 83 ec 28          	sub    $0x28,%rsp
  402b21:	48 89 fd             	mov    %rdi,%rbp
  402b24:	64 48 8b 04 25 28 00 	mov    %fs:0x28,%rax
  402b2b:	00 00 
  402b2d:	48 89 44 24 18       	mov    %rax,0x18(%rsp)
  402b32:	31 c0                	xor    %eax,%eax
  402b34:	be 01 00 00 00       	mov    $0x1,%esi
  402b39:	bf 0d 00 00 00       	mov    $0xd,%edi
  402b3e:	e8 2d e2 ff ff       	callq  400d70 <signal@plt>
  402b43:	be 01 00 00 00       	mov    $0x1,%esi
  402b48:	bf 1d 00 00 00       	mov    $0x1d,%edi
  402b4d:	e8 1e e2 ff ff       	callq  400d70 <signal@plt>
  402b52:	be 01 00 00 00       	mov    $0x1,%esi
  402b57:	bf 1d 00 00 00       	mov    $0x1d,%edi
  402b5c:	e8 0f e2 ff ff       	callq  400d70 <signal@plt>
  402b61:	ba 00 00 00 00       	mov    $0x0,%edx
  402b66:	be 01 00 00 00       	mov    $0x1,%esi
  402b6b:	bf 02 00 00 00       	mov    $0x2,%edi
  402b70:	e8 3b e3 ff ff       	callq  400eb0 <socket@plt>
  402b75:	89 c3                	mov    %eax,%ebx
  402b77:	85 c0                	test   %eax,%eax
  402b79:	79 4f                	jns    402bca <init_driver+0xaf>
  402b7b:	48 b8 45 72 72 6f 72 	movabs $0x43203a726f727245,%rax
  402b82:	3a 20 43 
  402b85:	48 89 45 00          	mov    %rax,0x0(%rbp)
  402b89:	48 b8 6c 69 65 6e 74 	movabs $0x6e7520746e65696c,%rax
  402b90:	20 75 6e 
  402b93:	48 89 45 08          	mov    %rax,0x8(%rbp)
  402b97:	48 b8 61 62 6c 65 20 	movabs $0x206f7420656c6261,%rax
  402b9e:	74 6f 20 
  402ba1:	48 89 45 10          	mov    %rax,0x10(%rbp)
  402ba5:	48 b8 63 72 65 61 74 	movabs $0x7320657461657263,%rax
  402bac:	65 20 73 
  402baf:	48 89 45 18          	mov    %rax,0x18(%rbp)
  402bb3:	c7 45 20 6f 63 6b 65 	movl   $0x656b636f,0x20(%rbp)
  402bba:	66 c7 45 24 74 00    	movw   $0x74,0x24(%rbp)
  402bc0:	b8 ff ff ff ff       	mov    $0xffffffff,%eax
  402bc5:	e9 28 01 00 00       	jmpq   402cf2 <init_driver+0x1d7>
  402bca:	bf 35 36 40 00       	mov    $0x403635,%edi
  402bcf:	e8 ac e1 ff ff       	callq  400d80 <gethostbyname@plt>
  402bd4:	48 85 c0             	test   %rax,%rax
  402bd7:	75 68                	jne    402c41 <init_driver+0x126>
  402bd9:	48 b8 45 72 72 6f 72 	movabs $0x44203a726f727245,%rax
  402be0:	3a 20 44 
  402be3:	48 89 45 00          	mov    %rax,0x0(%rbp)
  402be7:	48 b8 4e 53 20 69 73 	movabs $0x6e7520736920534e,%rax
  402bee:	20 75 6e 
  402bf1:	48 89 45 08          	mov    %rax,0x8(%rbp)
  402bf5:	48 b8 61 62 6c 65 20 	movabs $0x206f7420656c6261,%rax
  402bfc:	74 6f 20 
  402bff:	48 89 45 10          	mov    %rax,0x10(%rbp)
  402c03:	48 b8 72 65 73 6f 6c 	movabs $0x2065766c6f736572,%rax
  402c0a:	76 65 20 
  402c0d:	48 89 45 18          	mov    %rax,0x18(%rbp)
  402c11:	48 b8 73 65 72 76 65 	movabs $0x6120726576726573,%rax
  402c18:	72 20 61 
  402c1b:	48 89 45 20          	mov    %rax,0x20(%rbp)
  402c1f:	c7 45 28 64 64 72 65 	movl   $0x65726464,0x28(%rbp)
  402c26:	66 c7 45 2c 73 73    	movw   $0x7373,0x2c(%rbp)
  402c2c:	c6 45 2e 00          	movb   $0x0,0x2e(%rbp)
  402c30:	89 df                	mov    %ebx,%edi
  402c32:	e8 09 e1 ff ff       	callq  400d40 <close@plt>
  402c37:	b8 ff ff ff ff       	mov    $0xffffffff,%eax
  402c3c:	e9 b1 00 00 00       	jmpq   402cf2 <init_driver+0x1d7>
  402c41:	48 c7 04 24 00 00 00 	movq   $0x0,(%rsp)
  402c48:	00 
  402c49:	48 c7 44 24 08 00 00 	movq   $0x0,0x8(%rsp)
  402c50:	00 00 
  402c52:	66 c7 04 24 02 00    	movw   $0x2,(%rsp)
  402c58:	48 63 50 14          	movslq 0x14(%rax),%rdx
  402c5c:	48 8b 40 18          	mov    0x18(%rax),%rax
  402c60:	48 8b 30             	mov    (%rax),%rsi
  402c63:	48 8d 7c 24 04       	lea    0x4(%rsp),%rdi
  402c68:	b9 0c 00 00 00       	mov    $0xc,%ecx
  402c6d:	e8 1e e1 ff ff       	callq  400d90 <__memmove_chk@plt>
  402c72:	66 c7 44 24 02 12 f9 	movw   $0xf912,0x2(%rsp)
  402c79:	ba 10 00 00 00       	mov    $0x10,%edx
  402c7e:	48 89 e6             	mov    %rsp,%rsi
  402c81:	89 df                	mov    %ebx,%edi
  402c83:	e8 f8 e1 ff ff       	callq  400e80 <connect@plt>
  402c88:	85 c0                	test   %eax,%eax
  402c8a:	79 50                	jns    402cdc <init_driver+0x1c1>
  402c8c:	48 b8 45 72 72 6f 72 	movabs $0x55203a726f727245,%rax
  402c93:	3a 20 55 
  402c96:	48 89 45 00          	mov    %rax,0x0(%rbp)
  402c9a:	48 b8 6e 61 62 6c 65 	movabs $0x6f7420656c62616e,%rax
  402ca1:	20 74 6f 
  402ca4:	48 89 45 08          	mov    %rax,0x8(%rbp)
  402ca8:	48 b8 20 63 6f 6e 6e 	movabs $0x7463656e6e6f6320,%rax
  402caf:	65 63 74 
  402cb2:	48 89 45 10          	mov    %rax,0x10(%rbp)
  402cb6:	48 b8 20 74 6f 20 73 	movabs $0x76726573206f7420,%rax
  402cbd:	65 72 76 
  402cc0:	48 89 45 18          	mov    %rax,0x18(%rbp)
  402cc4:	66 c7 45 20 65 72    	movw   $0x7265,0x20(%rbp)
  402cca:	c6 45 22 00          	movb   $0x0,0x22(%rbp)
  402cce:	89 df                	mov    %ebx,%edi
  402cd0:	e8 6b e0 ff ff       	callq  400d40 <close@plt>
  402cd5:	b8 ff ff ff ff       	mov    $0xffffffff,%eax
  402cda:	eb 16                	jmp    402cf2 <init_driver+0x1d7>
  402cdc:	89 df                	mov    %ebx,%edi
  402cde:	e8 5d e0 ff ff       	callq  400d40 <close@plt>
  402ce3:	66 c7 45 00 4f 4b    	movw   $0x4b4f,0x0(%rbp)
  402ce9:	c6 45 02 00          	movb   $0x0,0x2(%rbp)
  402ced:	b8 00 00 00 00       	mov    $0x0,%eax
  402cf2:	48 8b 4c 24 18       	mov    0x18(%rsp),%rcx
  402cf7:	64 48 33 0c 25 28 00 	xor    %fs:0x28,%rcx
  402cfe:	00 00 
  402d00:	74 05                	je     402d07 <init_driver+0x1ec>
  402d02:	e8 f9 df ff ff       	callq  400d00 <__stack_chk_fail@plt>
  402d07:	48 83 c4 28          	add    $0x28,%rsp
  402d0b:	5b                   	pop    %rbx
  402d0c:	5d                   	pop    %rbp
  402d0d:	c3                   	retq   

0000000000402d0e <driver_post>:
  402d0e:	53                   	push   %rbx
  402d0f:	48 83 ec 10          	sub    $0x10,%rsp
  402d13:	4c 89 cb             	mov    %r9,%rbx
  402d16:	45 85 c0             	test   %r8d,%r8d
  402d19:	74 27                	je     402d42 <driver_post+0x34>
  402d1b:	48 89 ca             	mov    %rcx,%rdx
  402d1e:	be 4a 36 40 00       	mov    $0x40364a,%esi
  402d23:	bf 01 00 00 00       	mov    $0x1,%edi
  402d28:	b8 00 00 00 00       	mov    $0x0,%eax
  402d2d:	e8 ee e0 ff ff       	callq  400e20 <__printf_chk@plt>
  402d32:	66 c7 03 4f 4b       	movw   $0x4b4f,(%rbx)
  402d37:	c6 43 02 00          	movb   $0x0,0x2(%rbx)
  402d3b:	b8 00 00 00 00       	mov    $0x0,%eax
  402d40:	eb 39                	jmp    402d7b <driver_post+0x6d>
  402d42:	48 85 ff             	test   %rdi,%rdi
  402d45:	74 26                	je     402d6d <driver_post+0x5f>
  402d47:	80 3f 00             	cmpb   $0x0,(%rdi)
  402d4a:	74 21                	je     402d6d <driver_post+0x5f>
  402d4c:	4c 89 0c 24          	mov    %r9,(%rsp)
  402d50:	49 89 c9             	mov    %rcx,%r9
  402d53:	49 89 d0             	mov    %rdx,%r8
  402d56:	48 89 f9             	mov    %rdi,%rcx
  402d59:	48 89 f2             	mov    %rsi,%rdx
  402d5c:	be f9 12 00 00       	mov    $0x12f9,%esi
  402d61:	bf 35 36 40 00       	mov    $0x403635,%edi
  402d66:	e8 29 f6 ff ff       	callq  402394 <submitr>
  402d6b:	eb 0e                	jmp    402d7b <driver_post+0x6d>
  402d6d:	66 c7 03 4f 4b       	movw   $0x4b4f,(%rbx)
  402d72:	c6 43 02 00          	movb   $0x0,0x2(%rbx)
  402d76:	b8 00 00 00 00       	mov    $0x0,%eax
  402d7b:	48 83 c4 10          	add    $0x10,%rsp
  402d7f:	5b                   	pop    %rbx
  402d80:	c3                   	retq   

0000000000402d81 <check>:
  402d81:	89 f8                	mov    %edi,%eax
  402d83:	c1 e8 1c             	shr    $0x1c,%eax
  402d86:	85 c0                	test   %eax,%eax
  402d88:	74 1d                	je     402da7 <check+0x26>
  402d8a:	b9 00 00 00 00       	mov    $0x0,%ecx
  402d8f:	eb 0b                	jmp    402d9c <check+0x1b>
  402d91:	89 f8                	mov    %edi,%eax
  402d93:	d3 e8                	shr    %cl,%eax
  402d95:	3c 0a                	cmp    $0xa,%al
  402d97:	74 14                	je     402dad <check+0x2c>
  402d99:	83 c1 08             	add    $0x8,%ecx
  402d9c:	83 f9 1f             	cmp    $0x1f,%ecx
  402d9f:	7e f0                	jle    402d91 <check+0x10>
  402da1:	b8 01 00 00 00       	mov    $0x1,%eax
  402da6:	c3                   	retq   
  402da7:	b8 00 00 00 00       	mov    $0x0,%eax
  402dac:	c3                   	retq   
  402dad:	b8 00 00 00 00       	mov    $0x0,%eax
  402db2:	c3                   	retq   

0000000000402db3 <gencookie>:
  402db3:	53                   	push   %rbx
  402db4:	83 c7 01             	add    $0x1,%edi
  402db7:	e8 f4 de ff ff       	callq  400cb0 <srandom@plt>
  402dbc:	e8 1f e0 ff ff       	callq  400de0 <random@plt>
  402dc1:	89 c3                	mov    %eax,%ebx
  402dc3:	89 c7                	mov    %eax,%edi
  402dc5:	e8 b7 ff ff ff       	callq  402d81 <check>
  402dca:	85 c0                	test   %eax,%eax
  402dcc:	74 ee                	je     402dbc <gencookie+0x9>
  402dce:	89 d8                	mov    %ebx,%eax
  402dd0:	5b                   	pop    %rbx
  402dd1:	c3                   	retq   
  402dd2:	66 2e 0f 1f 84 00 00 	nopw   %cs:0x0(%rax,%rax,1)
  402dd9:	00 00 00 
  402ddc:	0f 1f 40 00          	nopl   0x0(%rax)

0000000000402de0 <__libc_csu_init>:
  402de0:	41 57                	push   %r15
  402de2:	41 89 ff             	mov    %edi,%r15d
  402de5:	41 56                	push   %r14
  402de7:	49 89 f6             	mov    %rsi,%r14
  402dea:	41 55                	push   %r13
  402dec:	49 89 d5             	mov    %rdx,%r13
  402def:	41 54                	push   %r12
  402df1:	4c 8d 25 18 10 20 00 	lea    0x201018(%rip),%r12        # 603e10 <__frame_dummy_init_array_entry>
  402df8:	55                   	push   %rbp
  402df9:	48 8d 2d 18 10 20 00 	lea    0x201018(%rip),%rbp        # 603e18 <__init_array_end>
  402e00:	53                   	push   %rbx
  402e01:	4c 29 e5             	sub    %r12,%rbp
  402e04:	31 db                	xor    %ebx,%ebx
  402e06:	48 c1 fd 03          	sar    $0x3,%rbp
  402e0a:	48 83 ec 08          	sub    $0x8,%rsp
  402e0e:	e8 4d de ff ff       	callq  400c60 <_init>
  402e13:	48 85 ed             	test   %rbp,%rbp
  402e16:	74 1e                	je     402e36 <__libc_csu_init+0x56>
  402e18:	0f 1f 84 00 00 00 00 	nopl   0x0(%rax,%rax,1)
  402e1f:	00 
  402e20:	4c 89 ea             	mov    %r13,%rdx
  402e23:	4c 89 f6             	mov    %r14,%rsi
  402e26:	44 89 ff             	mov    %r15d,%edi
  402e29:	41 ff 14 dc          	callq  *(%r12,%rbx,8)
  402e2d:	48 83 c3 01          	add    $0x1,%rbx
  402e31:	48 39 eb             	cmp    %rbp,%rbx
  402e34:	75 ea                	jne    402e20 <__libc_csu_init+0x40>
  402e36:	48 83 c4 08          	add    $0x8,%rsp
  402e3a:	5b                   	pop    %rbx
  402e3b:	5d                   	pop    %rbp
  402e3c:	41 5c                	pop    %r12
  402e3e:	41 5d                	pop    %r13
  402e40:	41 5e                	pop    %r14
  402e42:	41 5f                	pop    %r15
  402e44:	c3                   	retq   
  402e45:	66 66 2e 0f 1f 84 00 	data32 nopw %cs:0x0(%rax,%rax,1)
  402e4c:	00 00 00 00 

0000000000402e50 <__libc_csu_fini>:
  402e50:	f3 c3                	repz retq 

Disassembly of section .fini:

0000000000402e54 <_fini>:
  402e54:	48 83 ec 08          	sub    $0x8,%rsp
  402e58:	48 83 c4 08          	add    $0x8,%rsp
  402e5c:	c3                   	retq   
