
rtarget:     file format elf64-x86-64


Disassembly of section .init:

0000000000400c60 <_init>:
  400c60:	48 83 ec 08          	sub    $0x8,%rsp
  400c64:	48 8b 05 8d 43 20 00 	mov    0x20438d(%rip),%rax        # 604ff8 <_DYNAMIC+0x1d0>
  400c6b:	48 85 c0             	test   %rax,%rax
  400c6e:	74 05                	je     400c75 <_init+0x15>
  400c70:	e8 2b 01 00 00       	callq  400da0 <__gmon_start__@plt>
  400c75:	48 83 c4 08          	add    $0x8,%rsp
  400c79:	c3                   	retq   

Disassembly of section .plt:

0000000000400c80 <strcasecmp@plt-0x10>:
  400c80:	ff 35 82 43 20 00    	pushq  0x204382(%rip)        # 605008 <_GLOBAL_OFFSET_TABLE_+0x8>
  400c86:	ff 25 84 43 20 00    	jmpq   *0x204384(%rip)        # 605010 <_GLOBAL_OFFSET_TABLE_+0x10>
  400c8c:	0f 1f 40 00          	nopl   0x0(%rax)

0000000000400c90 <strcasecmp@plt>:
  400c90:	ff 25 82 43 20 00    	jmpq   *0x204382(%rip)        # 605018 <_GLOBAL_OFFSET_TABLE_+0x18>
  400c96:	68 00 00 00 00       	pushq  $0x0
  400c9b:	e9 e0 ff ff ff       	jmpq   400c80 <_init+0x20>

0000000000400ca0 <__errno_location@plt>:
  400ca0:	ff 25 7a 43 20 00    	jmpq   *0x20437a(%rip)        # 605020 <_GLOBAL_OFFSET_TABLE_+0x20>
  400ca6:	68 01 00 00 00       	pushq  $0x1
  400cab:	e9 d0 ff ff ff       	jmpq   400c80 <_init+0x20>

0000000000400cb0 <srandom@plt>:
  400cb0:	ff 25 72 43 20 00    	jmpq   *0x204372(%rip)        # 605028 <_GLOBAL_OFFSET_TABLE_+0x28>
  400cb6:	68 02 00 00 00       	pushq  $0x2
  400cbb:	e9 c0 ff ff ff       	jmpq   400c80 <_init+0x20>

0000000000400cc0 <strncmp@plt>:
  400cc0:	ff 25 6a 43 20 00    	jmpq   *0x20436a(%rip)        # 605030 <_GLOBAL_OFFSET_TABLE_+0x30>
  400cc6:	68 03 00 00 00       	pushq  $0x3
  400ccb:	e9 b0 ff ff ff       	jmpq   400c80 <_init+0x20>

0000000000400cd0 <strcpy@plt>:
  400cd0:	ff 25 62 43 20 00    	jmpq   *0x204362(%rip)        # 605038 <_GLOBAL_OFFSET_TABLE_+0x38>
  400cd6:	68 04 00 00 00       	pushq  $0x4
  400cdb:	e9 a0 ff ff ff       	jmpq   400c80 <_init+0x20>

0000000000400ce0 <puts@plt>:
  400ce0:	ff 25 5a 43 20 00    	jmpq   *0x20435a(%rip)        # 605040 <_GLOBAL_OFFSET_TABLE_+0x40>
  400ce6:	68 05 00 00 00       	pushq  $0x5
  400ceb:	e9 90 ff ff ff       	jmpq   400c80 <_init+0x20>

0000000000400cf0 <write@plt>:
  400cf0:	ff 25 52 43 20 00    	jmpq   *0x204352(%rip)        # 605048 <_GLOBAL_OFFSET_TABLE_+0x48>
  400cf6:	68 06 00 00 00       	pushq  $0x6
  400cfb:	e9 80 ff ff ff       	jmpq   400c80 <_init+0x20>

0000000000400d00 <__stack_chk_fail@plt>:
  400d00:	ff 25 4a 43 20 00    	jmpq   *0x20434a(%rip)        # 605050 <_GLOBAL_OFFSET_TABLE_+0x50>
  400d06:	68 07 00 00 00       	pushq  $0x7
  400d0b:	e9 70 ff ff ff       	jmpq   400c80 <_init+0x20>

0000000000400d10 <mmap@plt>:
  400d10:	ff 25 42 43 20 00    	jmpq   *0x204342(%rip)        # 605058 <_GLOBAL_OFFSET_TABLE_+0x58>
  400d16:	68 08 00 00 00       	pushq  $0x8
  400d1b:	e9 60 ff ff ff       	jmpq   400c80 <_init+0x20>

0000000000400d20 <memset@plt>:
  400d20:	ff 25 3a 43 20 00    	jmpq   *0x20433a(%rip)        # 605060 <_GLOBAL_OFFSET_TABLE_+0x60>
  400d26:	68 09 00 00 00       	pushq  $0x9
  400d2b:	e9 50 ff ff ff       	jmpq   400c80 <_init+0x20>

0000000000400d30 <alarm@plt>:
  400d30:	ff 25 32 43 20 00    	jmpq   *0x204332(%rip)        # 605068 <_GLOBAL_OFFSET_TABLE_+0x68>
  400d36:	68 0a 00 00 00       	pushq  $0xa
  400d3b:	e9 40 ff ff ff       	jmpq   400c80 <_init+0x20>

0000000000400d40 <close@plt>:
  400d40:	ff 25 2a 43 20 00    	jmpq   *0x20432a(%rip)        # 605070 <_GLOBAL_OFFSET_TABLE_+0x70>
  400d46:	68 0b 00 00 00       	pushq  $0xb
  400d4b:	e9 30 ff ff ff       	jmpq   400c80 <_init+0x20>

0000000000400d50 <read@plt>:
  400d50:	ff 25 22 43 20 00    	jmpq   *0x204322(%rip)        # 605078 <_GLOBAL_OFFSET_TABLE_+0x78>
  400d56:	68 0c 00 00 00       	pushq  $0xc
  400d5b:	e9 20 ff ff ff       	jmpq   400c80 <_init+0x20>

0000000000400d60 <__libc_start_main@plt>:
  400d60:	ff 25 1a 43 20 00    	jmpq   *0x20431a(%rip)        # 605080 <_GLOBAL_OFFSET_TABLE_+0x80>
  400d66:	68 0d 00 00 00       	pushq  $0xd
  400d6b:	e9 10 ff ff ff       	jmpq   400c80 <_init+0x20>

0000000000400d70 <signal@plt>:
  400d70:	ff 25 12 43 20 00    	jmpq   *0x204312(%rip)        # 605088 <_GLOBAL_OFFSET_TABLE_+0x88>
  400d76:	68 0e 00 00 00       	pushq  $0xe
  400d7b:	e9 00 ff ff ff       	jmpq   400c80 <_init+0x20>

0000000000400d80 <gethostbyname@plt>:
  400d80:	ff 25 0a 43 20 00    	jmpq   *0x20430a(%rip)        # 605090 <_GLOBAL_OFFSET_TABLE_+0x90>
  400d86:	68 0f 00 00 00       	pushq  $0xf
  400d8b:	e9 f0 fe ff ff       	jmpq   400c80 <_init+0x20>

0000000000400d90 <__memmove_chk@plt>:
  400d90:	ff 25 02 43 20 00    	jmpq   *0x204302(%rip)        # 605098 <_GLOBAL_OFFSET_TABLE_+0x98>
  400d96:	68 10 00 00 00       	pushq  $0x10
  400d9b:	e9 e0 fe ff ff       	jmpq   400c80 <_init+0x20>

0000000000400da0 <__gmon_start__@plt>:
  400da0:	ff 25 fa 42 20 00    	jmpq   *0x2042fa(%rip)        # 6050a0 <_GLOBAL_OFFSET_TABLE_+0xa0>
  400da6:	68 11 00 00 00       	pushq  $0x11
  400dab:	e9 d0 fe ff ff       	jmpq   400c80 <_init+0x20>

0000000000400db0 <strtol@plt>:
  400db0:	ff 25 f2 42 20 00    	jmpq   *0x2042f2(%rip)        # 6050a8 <_GLOBAL_OFFSET_TABLE_+0xa8>
  400db6:	68 12 00 00 00       	pushq  $0x12
  400dbb:	e9 c0 fe ff ff       	jmpq   400c80 <_init+0x20>

0000000000400dc0 <memcpy@plt>:
  400dc0:	ff 25 ea 42 20 00    	jmpq   *0x2042ea(%rip)        # 6050b0 <_GLOBAL_OFFSET_TABLE_+0xb0>
  400dc6:	68 13 00 00 00       	pushq  $0x13
  400dcb:	e9 b0 fe ff ff       	jmpq   400c80 <_init+0x20>

0000000000400dd0 <time@plt>:
  400dd0:	ff 25 e2 42 20 00    	jmpq   *0x2042e2(%rip)        # 6050b8 <_GLOBAL_OFFSET_TABLE_+0xb8>
  400dd6:	68 14 00 00 00       	pushq  $0x14
  400ddb:	e9 a0 fe ff ff       	jmpq   400c80 <_init+0x20>

0000000000400de0 <random@plt>:
  400de0:	ff 25 da 42 20 00    	jmpq   *0x2042da(%rip)        # 6050c0 <_GLOBAL_OFFSET_TABLE_+0xc0>
  400de6:	68 15 00 00 00       	pushq  $0x15
  400deb:	e9 90 fe ff ff       	jmpq   400c80 <_init+0x20>

0000000000400df0 <_IO_getc@plt>:
  400df0:	ff 25 d2 42 20 00    	jmpq   *0x2042d2(%rip)        # 6050c8 <_GLOBAL_OFFSET_TABLE_+0xc8>
  400df6:	68 16 00 00 00       	pushq  $0x16
  400dfb:	e9 80 fe ff ff       	jmpq   400c80 <_init+0x20>

0000000000400e00 <__isoc99_sscanf@plt>:
  400e00:	ff 25 ca 42 20 00    	jmpq   *0x2042ca(%rip)        # 6050d0 <_GLOBAL_OFFSET_TABLE_+0xd0>
  400e06:	68 17 00 00 00       	pushq  $0x17
  400e0b:	e9 70 fe ff ff       	jmpq   400c80 <_init+0x20>

0000000000400e10 <munmap@plt>:
  400e10:	ff 25 c2 42 20 00    	jmpq   *0x2042c2(%rip)        # 6050d8 <_GLOBAL_OFFSET_TABLE_+0xd8>
  400e16:	68 18 00 00 00       	pushq  $0x18
  400e1b:	e9 60 fe ff ff       	jmpq   400c80 <_init+0x20>

0000000000400e20 <__printf_chk@plt>:
  400e20:	ff 25 ba 42 20 00    	jmpq   *0x2042ba(%rip)        # 6050e0 <_GLOBAL_OFFSET_TABLE_+0xe0>
  400e26:	68 19 00 00 00       	pushq  $0x19
  400e2b:	e9 50 fe ff ff       	jmpq   400c80 <_init+0x20>

0000000000400e30 <fopen@plt>:
  400e30:	ff 25 b2 42 20 00    	jmpq   *0x2042b2(%rip)        # 6050e8 <_GLOBAL_OFFSET_TABLE_+0xe8>
  400e36:	68 1a 00 00 00       	pushq  $0x1a
  400e3b:	e9 40 fe ff ff       	jmpq   400c80 <_init+0x20>

0000000000400e40 <getopt@plt>:
  400e40:	ff 25 aa 42 20 00    	jmpq   *0x2042aa(%rip)        # 6050f0 <_GLOBAL_OFFSET_TABLE_+0xf0>
  400e46:	68 1b 00 00 00       	pushq  $0x1b
  400e4b:	e9 30 fe ff ff       	jmpq   400c80 <_init+0x20>

0000000000400e50 <strtoul@plt>:
  400e50:	ff 25 a2 42 20 00    	jmpq   *0x2042a2(%rip)        # 6050f8 <_GLOBAL_OFFSET_TABLE_+0xf8>
  400e56:	68 1c 00 00 00       	pushq  $0x1c
  400e5b:	e9 20 fe ff ff       	jmpq   400c80 <_init+0x20>

0000000000400e60 <gethostname@plt>:
  400e60:	ff 25 9a 42 20 00    	jmpq   *0x20429a(%rip)        # 605100 <_GLOBAL_OFFSET_TABLE_+0x100>
  400e66:	68 1d 00 00 00       	pushq  $0x1d
  400e6b:	e9 10 fe ff ff       	jmpq   400c80 <_init+0x20>

0000000000400e70 <exit@plt>:
  400e70:	ff 25 92 42 20 00    	jmpq   *0x204292(%rip)        # 605108 <_GLOBAL_OFFSET_TABLE_+0x108>
  400e76:	68 1e 00 00 00       	pushq  $0x1e
  400e7b:	e9 00 fe ff ff       	jmpq   400c80 <_init+0x20>

0000000000400e80 <connect@plt>:
  400e80:	ff 25 8a 42 20 00    	jmpq   *0x20428a(%rip)        # 605110 <_GLOBAL_OFFSET_TABLE_+0x110>
  400e86:	68 1f 00 00 00       	pushq  $0x1f
  400e8b:	e9 f0 fd ff ff       	jmpq   400c80 <_init+0x20>

0000000000400e90 <__fprintf_chk@plt>:
  400e90:	ff 25 82 42 20 00    	jmpq   *0x204282(%rip)        # 605118 <_GLOBAL_OFFSET_TABLE_+0x118>
  400e96:	68 20 00 00 00       	pushq  $0x20
  400e9b:	e9 e0 fd ff ff       	jmpq   400c80 <_init+0x20>

0000000000400ea0 <__sprintf_chk@plt>:
  400ea0:	ff 25 7a 42 20 00    	jmpq   *0x20427a(%rip)        # 605120 <_GLOBAL_OFFSET_TABLE_+0x120>
  400ea6:	68 21 00 00 00       	pushq  $0x21
  400eab:	e9 d0 fd ff ff       	jmpq   400c80 <_init+0x20>

0000000000400eb0 <socket@plt>:
  400eb0:	ff 25 72 42 20 00    	jmpq   *0x204272(%rip)        # 605128 <_GLOBAL_OFFSET_TABLE_+0x128>
  400eb6:	68 22 00 00 00       	pushq  $0x22
  400ebb:	e9 c0 fd ff ff       	jmpq   400c80 <_init+0x20>

Disassembly of section .text:

0000000000400ec0 <_start>:
  400ec0:	31 ed                	xor    %ebp,%ebp
  400ec2:	49 89 d1             	mov    %rdx,%r9
  400ec5:	5e                   	pop    %rsi
  400ec6:	48 89 e2             	mov    %rsp,%rdx
  400ec9:	48 83 e4 f0          	and    $0xfffffffffffffff0,%rsp
  400ecd:	50                   	push   %rax
  400ece:	54                   	push   %rsp
  400ecf:	49 c7 c0 70 2f 40 00 	mov    $0x402f70,%r8
  400ed6:	48 c7 c1 00 2f 40 00 	mov    $0x402f00,%rcx
  400edd:	48 c7 c7 dc 11 40 00 	mov    $0x4011dc,%rdi
  400ee4:	e8 77 fe ff ff       	callq  400d60 <__libc_start_main@plt>
  400ee9:	f4                   	hlt    
  400eea:	66 0f 1f 44 00 00    	nopw   0x0(%rax,%rax,1)

0000000000400ef0 <deregister_tm_clones>:
  400ef0:	b8 b7 54 60 00       	mov    $0x6054b7,%eax
  400ef5:	55                   	push   %rbp
  400ef6:	48 2d b0 54 60 00    	sub    $0x6054b0,%rax
  400efc:	48 83 f8 0e          	cmp    $0xe,%rax
  400f00:	48 89 e5             	mov    %rsp,%rbp
  400f03:	77 02                	ja     400f07 <deregister_tm_clones+0x17>
  400f05:	5d                   	pop    %rbp
  400f06:	c3                   	retq   
  400f07:	b8 00 00 00 00       	mov    $0x0,%eax
  400f0c:	48 85 c0             	test   %rax,%rax
  400f0f:	74 f4                	je     400f05 <deregister_tm_clones+0x15>
  400f11:	5d                   	pop    %rbp
  400f12:	bf b0 54 60 00       	mov    $0x6054b0,%edi
  400f17:	ff e0                	jmpq   *%rax
  400f19:	0f 1f 80 00 00 00 00 	nopl   0x0(%rax)

0000000000400f20 <register_tm_clones>:
  400f20:	b8 b0 54 60 00       	mov    $0x6054b0,%eax
  400f25:	55                   	push   %rbp
  400f26:	48 2d b0 54 60 00    	sub    $0x6054b0,%rax
  400f2c:	48 c1 f8 03          	sar    $0x3,%rax
  400f30:	48 89 e5             	mov    %rsp,%rbp
  400f33:	48 89 c2             	mov    %rax,%rdx
  400f36:	48 c1 ea 3f          	shr    $0x3f,%rdx
  400f3a:	48 01 d0             	add    %rdx,%rax
  400f3d:	48 d1 f8             	sar    %rax
  400f40:	75 02                	jne    400f44 <register_tm_clones+0x24>
  400f42:	5d                   	pop    %rbp
  400f43:	c3                   	retq   
  400f44:	ba 00 00 00 00       	mov    $0x0,%edx
  400f49:	48 85 d2             	test   %rdx,%rdx
  400f4c:	74 f4                	je     400f42 <register_tm_clones+0x22>
  400f4e:	5d                   	pop    %rbp
  400f4f:	48 89 c6             	mov    %rax,%rsi
  400f52:	bf b0 54 60 00       	mov    $0x6054b0,%edi
  400f57:	ff e2                	jmpq   *%rdx
  400f59:	0f 1f 80 00 00 00 00 	nopl   0x0(%rax)

0000000000400f60 <__do_global_dtors_aux>:
  400f60:	80 3d 89 45 20 00 00 	cmpb   $0x0,0x204589(%rip)        # 6054f0 <completed.6973>
  400f67:	75 11                	jne    400f7a <__do_global_dtors_aux+0x1a>
  400f69:	55                   	push   %rbp
  400f6a:	48 89 e5             	mov    %rsp,%rbp
  400f6d:	e8 7e ff ff ff       	callq  400ef0 <deregister_tm_clones>
  400f72:	5d                   	pop    %rbp
  400f73:	c6 05 76 45 20 00 01 	movb   $0x1,0x204576(%rip)        # 6054f0 <completed.6973>
  400f7a:	f3 c3                	repz retq 
  400f7c:	0f 1f 40 00          	nopl   0x0(%rax)

0000000000400f80 <frame_dummy>:
  400f80:	48 83 3d 98 3e 20 00 	cmpq   $0x0,0x203e98(%rip)        # 604e20 <__JCR_END__>
  400f87:	00 
  400f88:	74 1e                	je     400fa8 <frame_dummy+0x28>
  400f8a:	b8 00 00 00 00       	mov    $0x0,%eax
  400f8f:	48 85 c0             	test   %rax,%rax
  400f92:	74 14                	je     400fa8 <frame_dummy+0x28>
  400f94:	55                   	push   %rbp
  400f95:	bf 20 4e 60 00       	mov    $0x604e20,%edi
  400f9a:	48 89 e5             	mov    %rsp,%rbp
  400f9d:	ff d0                	callq  *%rax
  400f9f:	5d                   	pop    %rbp
  400fa0:	e9 7b ff ff ff       	jmpq   400f20 <register_tm_clones>
  400fa5:	0f 1f 00             	nopl   (%rax)
  400fa8:	e9 73 ff ff ff       	jmpq   400f20 <register_tm_clones>
  400fad:	0f 1f 00             	nopl   (%rax)

0000000000400fb0 <usage>:
  400fb0:	48 83 ec 08          	sub    $0x8,%rsp
  400fb4:	48 89 fa             	mov    %rdi,%rdx
  400fb7:	83 3d 6a 45 20 00 00 	cmpl   $0x0,0x20456a(%rip)        # 605528 <is_checker>
  400fbe:	74 3e                	je     400ffe <usage+0x4e>
  400fc0:	be 88 2f 40 00       	mov    $0x402f88,%esi
  400fc5:	bf 01 00 00 00       	mov    $0x1,%edi
  400fca:	b8 00 00 00 00       	mov    $0x0,%eax
  400fcf:	e8 4c fe ff ff       	callq  400e20 <__printf_chk@plt>
  400fd4:	bf c0 2f 40 00       	mov    $0x402fc0,%edi
  400fd9:	e8 02 fd ff ff       	callq  400ce0 <puts@plt>
  400fde:	bf 38 31 40 00       	mov    $0x403138,%edi
  400fe3:	e8 f8 fc ff ff       	callq  400ce0 <puts@plt>
  400fe8:	bf e8 2f 40 00       	mov    $0x402fe8,%edi
  400fed:	e8 ee fc ff ff       	callq  400ce0 <puts@plt>
  400ff2:	bf 52 31 40 00       	mov    $0x403152,%edi
  400ff7:	e8 e4 fc ff ff       	callq  400ce0 <puts@plt>
  400ffc:	eb 32                	jmp    401030 <usage+0x80>
  400ffe:	be 6e 31 40 00       	mov    $0x40316e,%esi
  401003:	bf 01 00 00 00       	mov    $0x1,%edi
  401008:	b8 00 00 00 00       	mov    $0x0,%eax
  40100d:	e8 0e fe ff ff       	callq  400e20 <__printf_chk@plt>
  401012:	bf 10 30 40 00       	mov    $0x403010,%edi
  401017:	e8 c4 fc ff ff       	callq  400ce0 <puts@plt>
  40101c:	bf 38 30 40 00       	mov    $0x403038,%edi
  401021:	e8 ba fc ff ff       	callq  400ce0 <puts@plt>
  401026:	bf 8c 31 40 00       	mov    $0x40318c,%edi
  40102b:	e8 b0 fc ff ff       	callq  400ce0 <puts@plt>
  401030:	bf 00 00 00 00       	mov    $0x0,%edi
  401035:	e8 36 fe ff ff       	callq  400e70 <exit@plt>

000000000040103a <initialize_target>:
  40103a:	55                   	push   %rbp
  40103b:	53                   	push   %rbx
  40103c:	48 81 ec 18 21 00 00 	sub    $0x2118,%rsp
  401043:	89 f5                	mov    %esi,%ebp
  401045:	64 48 8b 04 25 28 00 	mov    %fs:0x28,%rax
  40104c:	00 00 
  40104e:	48 89 84 24 08 21 00 	mov    %rax,0x2108(%rsp)
  401055:	00 
  401056:	31 c0                	xor    %eax,%eax
  401058:	89 3d ba 44 20 00    	mov    %edi,0x2044ba(%rip)        # 605518 <check_level>
  40105e:	8b 3d 04 41 20 00    	mov    0x204104(%rip),%edi        # 605168 <target_id>
  401064:	e8 6a 1e 00 00       	callq  402ed3 <gencookie>
  401069:	89 05 b5 44 20 00    	mov    %eax,0x2044b5(%rip)        # 605524 <cookie>
  40106f:	89 c7                	mov    %eax,%edi
  401071:	e8 5d 1e 00 00       	callq  402ed3 <gencookie>
  401076:	89 05 a4 44 20 00    	mov    %eax,0x2044a4(%rip)        # 605520 <authkey>
  40107c:	8b 05 e6 40 20 00    	mov    0x2040e6(%rip),%eax        # 605168 <target_id>
  401082:	8d 78 01             	lea    0x1(%rax),%edi
  401085:	e8 26 fc ff ff       	callq  400cb0 <srandom@plt>
  40108a:	e8 51 fd ff ff       	callq  400de0 <random@plt>
  40108f:	89 c7                	mov    %eax,%edi
  401091:	e8 20 03 00 00       	callq  4013b6 <scramble>
  401096:	89 c3                	mov    %eax,%ebx
  401098:	85 ed                	test   %ebp,%ebp
  40109a:	74 18                	je     4010b4 <initialize_target+0x7a>
  40109c:	bf 00 00 00 00       	mov    $0x0,%edi
  4010a1:	e8 2a fd ff ff       	callq  400dd0 <time@plt>
  4010a6:	89 c7                	mov    %eax,%edi
  4010a8:	e8 03 fc ff ff       	callq  400cb0 <srandom@plt>
  4010ad:	e8 2e fd ff ff       	callq  400de0 <random@plt>
  4010b2:	eb 05                	jmp    4010b9 <initialize_target+0x7f>
  4010b4:	b8 00 00 00 00       	mov    $0x0,%eax
  4010b9:	01 c3                	add    %eax,%ebx
  4010bb:	0f b7 db             	movzwl %bx,%ebx
  4010be:	8d 04 dd 00 01 00 00 	lea    0x100(,%rbx,8),%eax
  4010c5:	89 c0                	mov    %eax,%eax
  4010c7:	48 89 05 d2 43 20 00 	mov    %rax,0x2043d2(%rip)        # 6054a0 <buf_offset>
  4010ce:	c6 05 73 50 20 00 72 	movb   $0x72,0x205073(%rip)        # 606148 <target_prefix>
  4010d5:	83 3d cc 43 20 00 00 	cmpl   $0x0,0x2043cc(%rip)        # 6054a8 <notify>
  4010dc:	0f 84 d8 00 00 00    	je     4011ba <initialize_target+0x180>
  4010e2:	83 3d 3f 44 20 00 00 	cmpl   $0x0,0x20443f(%rip)        # 605528 <is_checker>
  4010e9:	0f 85 cb 00 00 00    	jne    4011ba <initialize_target+0x180>
  4010ef:	be 00 01 00 00       	mov    $0x100,%esi
  4010f4:	48 89 e7             	mov    %rsp,%rdi
  4010f7:	e8 64 fd ff ff       	callq  400e60 <gethostname@plt>
  4010fc:	85 c0                	test   %eax,%eax
  4010fe:	74 25                	je     401125 <initialize_target+0xeb>
  401100:	bf 68 30 40 00       	mov    $0x403068,%edi
  401105:	e8 d6 fb ff ff       	callq  400ce0 <puts@plt>
  40110a:	bf 08 00 00 00       	mov    $0x8,%edi
  40110f:	e8 5c fd ff ff       	callq  400e70 <exit@plt>
  401114:	48 89 e6             	mov    %rsp,%rsi
  401117:	e8 74 fb ff ff       	callq  400c90 <strcasecmp@plt>
  40111c:	85 c0                	test   %eax,%eax
  40111e:	74 21                	je     401141 <initialize_target+0x107>
  401120:	83 c3 01             	add    $0x1,%ebx
  401123:	eb 05                	jmp    40112a <initialize_target+0xf0>
  401125:	bb 00 00 00 00       	mov    $0x0,%ebx
  40112a:	48 63 c3             	movslq %ebx,%rax
  40112d:	48 8b 3c c5 80 51 60 	mov    0x605180(,%rax,8),%rdi
  401134:	00 
  401135:	48 85 ff             	test   %rdi,%rdi
  401138:	75 da                	jne    401114 <initialize_target+0xda>
  40113a:	bb 00 00 00 00       	mov    $0x0,%ebx
  40113f:	eb 05                	jmp    401146 <initialize_target+0x10c>
  401141:	bb 01 00 00 00       	mov    $0x1,%ebx
  401146:	48 8b 35 13 40 20 00 	mov    0x204013(%rip),%rsi        # 605160 <user_id>
  40114d:	48 89 e7             	mov    %rsp,%rdi
  401150:	e8 3b fb ff ff       	callq  400c90 <strcasecmp@plt>
  401155:	85 c0                	test   %eax,%eax
  401157:	75 05                	jne    40115e <initialize_target+0x124>
  401159:	bb 01 00 00 00       	mov    $0x1,%ebx
  40115e:	85 db                	test   %ebx,%ebx
  401160:	75 21                	jne    401183 <initialize_target+0x149>
  401162:	48 89 e2             	mov    %rsp,%rdx
  401165:	be a0 30 40 00       	mov    $0x4030a0,%esi
  40116a:	bf 01 00 00 00       	mov    $0x1,%edi
  40116f:	b8 00 00 00 00       	mov    $0x0,%eax
  401174:	e8 a7 fc ff ff       	callq  400e20 <__printf_chk@plt>
  401179:	bf 08 00 00 00       	mov    $0x8,%edi
  40117e:	e8 ed fc ff ff       	callq  400e70 <exit@plt>
  401183:	48 8d bc 24 00 01 00 	lea    0x100(%rsp),%rdi
  40118a:	00 
  40118b:	e8 ab 1a 00 00       	callq  402c3b <init_driver>
  401190:	85 c0                	test   %eax,%eax
  401192:	79 26                	jns    4011ba <initialize_target+0x180>
  401194:	48 8d 94 24 00 01 00 	lea    0x100(%rsp),%rdx
  40119b:	00 
  40119c:	be e0 30 40 00       	mov    $0x4030e0,%esi
  4011a1:	bf 01 00 00 00       	mov    $0x1,%edi
  4011a6:	b8 00 00 00 00       	mov    $0x0,%eax
  4011ab:	e8 70 fc ff ff       	callq  400e20 <__printf_chk@plt>
  4011b0:	bf 08 00 00 00       	mov    $0x8,%edi
  4011b5:	e8 b6 fc ff ff       	callq  400e70 <exit@plt>
  4011ba:	48 8b 84 24 08 21 00 	mov    0x2108(%rsp),%rax
  4011c1:	00 
  4011c2:	64 48 33 04 25 28 00 	xor    %fs:0x28,%rax
  4011c9:	00 00 
  4011cb:	74 05                	je     4011d2 <initialize_target+0x198>
  4011cd:	e8 2e fb ff ff       	callq  400d00 <__stack_chk_fail@plt>
  4011d2:	48 81 c4 18 21 00 00 	add    $0x2118,%rsp
  4011d9:	5b                   	pop    %rbx
  4011da:	5d                   	pop    %rbp
  4011db:	c3                   	retq   

00000000004011dc <main>:
  4011dc:	41 56                	push   %r14
  4011de:	41 55                	push   %r13
  4011e0:	41 54                	push   %r12
  4011e2:	55                   	push   %rbp
  4011e3:	53                   	push   %rbx
  4011e4:	41 89 fc             	mov    %edi,%r12d
  4011e7:	48 89 f3             	mov    %rsi,%rbx
  4011ea:	be ae 1f 40 00       	mov    $0x401fae,%esi
  4011ef:	bf 0b 00 00 00       	mov    $0xb,%edi
  4011f4:	e8 77 fb ff ff       	callq  400d70 <signal@plt>
  4011f9:	be 60 1f 40 00       	mov    $0x401f60,%esi
  4011fe:	bf 07 00 00 00       	mov    $0x7,%edi
  401203:	e8 68 fb ff ff       	callq  400d70 <signal@plt>
  401208:	be fc 1f 40 00       	mov    $0x401ffc,%esi
  40120d:	bf 04 00 00 00       	mov    $0x4,%edi
  401212:	e8 59 fb ff ff       	callq  400d70 <signal@plt>
  401217:	83 3d 0a 43 20 00 00 	cmpl   $0x0,0x20430a(%rip)        # 605528 <is_checker>
  40121e:	74 20                	je     401240 <main+0x64>
  401220:	be 4a 20 40 00       	mov    $0x40204a,%esi
  401225:	bf 0e 00 00 00       	mov    $0xe,%edi
  40122a:	e8 41 fb ff ff       	callq  400d70 <signal@plt>
  40122f:	bf 05 00 00 00       	mov    $0x5,%edi
  401234:	e8 f7 fa ff ff       	callq  400d30 <alarm@plt>
  401239:	bd aa 31 40 00       	mov    $0x4031aa,%ebp
  40123e:	eb 05                	jmp    401245 <main+0x69>
  401240:	bd a5 31 40 00       	mov    $0x4031a5,%ebp
  401245:	48 8b 05 74 42 20 00 	mov    0x204274(%rip),%rax        # 6054c0 <stdin@@GLIBC_2.2.5>
  40124c:	48 89 05 bd 42 20 00 	mov    %rax,0x2042bd(%rip)        # 605510 <infile>
  401253:	41 bd 00 00 00 00    	mov    $0x0,%r13d
  401259:	41 be 00 00 00 00    	mov    $0x0,%r14d
  40125f:	e9 c6 00 00 00       	jmpq   40132a <main+0x14e>
  401264:	83 e8 61             	sub    $0x61,%eax
  401267:	3c 10                	cmp    $0x10,%al
  401269:	0f 87 9c 00 00 00    	ja     40130b <main+0x12f>
  40126f:	0f b6 c0             	movzbl %al,%eax
  401272:	ff 24 c5 f0 31 40 00 	jmpq   *0x4031f0(,%rax,8)
  401279:	48 8b 3b             	mov    (%rbx),%rdi
  40127c:	e8 2f fd ff ff       	callq  400fb0 <usage>
  401281:	be 55 34 40 00       	mov    $0x403455,%esi
  401286:	48 8b 3d 53 42 20 00 	mov    0x204253(%rip),%rdi        # 6054e0 <optarg@@GLIBC_2.2.5>
  40128d:	e8 9e fb ff ff       	callq  400e30 <fopen@plt>
  401292:	48 89 05 77 42 20 00 	mov    %rax,0x204277(%rip)        # 605510 <infile>
  401299:	48 85 c0             	test   %rax,%rax
  40129c:	0f 85 88 00 00 00    	jne    40132a <main+0x14e>
  4012a2:	48 8b 0d 37 42 20 00 	mov    0x204237(%rip),%rcx        # 6054e0 <optarg@@GLIBC_2.2.5>
  4012a9:	ba b2 31 40 00       	mov    $0x4031b2,%edx
  4012ae:	be 01 00 00 00       	mov    $0x1,%esi
  4012b3:	48 8b 3d 2e 42 20 00 	mov    0x20422e(%rip),%rdi        # 6054e8 <stderr@@GLIBC_2.2.5>
  4012ba:	e8 d1 fb ff ff       	callq  400e90 <__fprintf_chk@plt>
  4012bf:	b8 01 00 00 00       	mov    $0x1,%eax
  4012c4:	e9 e4 00 00 00       	jmpq   4013ad <main+0x1d1>
  4012c9:	ba 10 00 00 00       	mov    $0x10,%edx
  4012ce:	be 00 00 00 00       	mov    $0x0,%esi
  4012d3:	48 8b 3d 06 42 20 00 	mov    0x204206(%rip),%rdi        # 6054e0 <optarg@@GLIBC_2.2.5>
  4012da:	e8 71 fb ff ff       	callq  400e50 <strtoul@plt>
  4012df:	41 89 c6             	mov    %eax,%r14d
  4012e2:	eb 46                	jmp    40132a <main+0x14e>
  4012e4:	ba 0a 00 00 00       	mov    $0xa,%edx
  4012e9:	be 00 00 00 00       	mov    $0x0,%esi
  4012ee:	48 8b 3d eb 41 20 00 	mov    0x2041eb(%rip),%rdi        # 6054e0 <optarg@@GLIBC_2.2.5>
  4012f5:	e8 b6 fa ff ff       	callq  400db0 <strtol@plt>
  4012fa:	41 89 c5             	mov    %eax,%r13d
  4012fd:	eb 2b                	jmp    40132a <main+0x14e>
  4012ff:	c7 05 9f 41 20 00 00 	movl   $0x0,0x20419f(%rip)        # 6054a8 <notify>
  401306:	00 00 00 
  401309:	eb 1f                	jmp    40132a <main+0x14e>
  40130b:	0f be d2             	movsbl %dl,%edx
  40130e:	be cf 31 40 00       	mov    $0x4031cf,%esi
  401313:	bf 01 00 00 00       	mov    $0x1,%edi
  401318:	b8 00 00 00 00       	mov    $0x0,%eax
  40131d:	e8 fe fa ff ff       	callq  400e20 <__printf_chk@plt>
  401322:	48 8b 3b             	mov    (%rbx),%rdi
  401325:	e8 86 fc ff ff       	callq  400fb0 <usage>
  40132a:	48 89 ea             	mov    %rbp,%rdx
  40132d:	48 89 de             	mov    %rbx,%rsi
  401330:	44 89 e7             	mov    %r12d,%edi
  401333:	e8 08 fb ff ff       	callq  400e40 <getopt@plt>
  401338:	89 c2                	mov    %eax,%edx
  40133a:	3c ff                	cmp    $0xff,%al
  40133c:	0f 85 22 ff ff ff    	jne    401264 <main+0x88>
  401342:	be 01 00 00 00       	mov    $0x1,%esi
  401347:	44 89 ef             	mov    %r13d,%edi
  40134a:	e8 eb fc ff ff       	callq  40103a <initialize_target>
  40134f:	83 3d d2 41 20 00 00 	cmpl   $0x0,0x2041d2(%rip)        # 605528 <is_checker>
  401356:	74 2a                	je     401382 <main+0x1a6>
  401358:	44 3b 35 c1 41 20 00 	cmp    0x2041c1(%rip),%r14d        # 605520 <authkey>
  40135f:	74 21                	je     401382 <main+0x1a6>
  401361:	44 89 f2             	mov    %r14d,%edx
  401364:	be 08 31 40 00       	mov    $0x403108,%esi
  401369:	bf 01 00 00 00       	mov    $0x1,%edi
  40136e:	b8 00 00 00 00       	mov    $0x0,%eax
  401373:	e8 a8 fa ff ff       	callq  400e20 <__printf_chk@plt>
  401378:	b8 00 00 00 00       	mov    $0x0,%eax
  40137d:	e8 69 08 00 00       	callq  401beb <check_fail>
  401382:	8b 15 9c 41 20 00    	mov    0x20419c(%rip),%edx        # 605524 <cookie>
  401388:	be e2 31 40 00       	mov    $0x4031e2,%esi
  40138d:	bf 01 00 00 00       	mov    $0x1,%edi
  401392:	b8 00 00 00 00       	mov    $0x0,%eax
  401397:	e8 84 fa ff ff       	callq  400e20 <__printf_chk@plt>
  40139c:	48 8b 3d fd 40 20 00 	mov    0x2040fd(%rip),%rdi        # 6054a0 <buf_offset>
  4013a3:	e8 f5 0c 00 00       	callq  40209d <launch>
  4013a8:	b8 00 00 00 00       	mov    $0x0,%eax
  4013ad:	5b                   	pop    %rbx
  4013ae:	5d                   	pop    %rbp
  4013af:	41 5c                	pop    %r12
  4013b1:	41 5d                	pop    %r13
  4013b3:	41 5e                	pop    %r14
  4013b5:	c3                   	retq   

00000000004013b6 <scramble>:
  4013b6:	b8 00 00 00 00       	mov    $0x0,%eax
  4013bb:	eb 11                	jmp    4013ce <scramble+0x18>
  4013bd:	69 c8 09 b7 00 00    	imul   $0xb709,%eax,%ecx
  4013c3:	01 f9                	add    %edi,%ecx
  4013c5:	89 c2                	mov    %eax,%edx
  4013c7:	89 4c 94 c8          	mov    %ecx,-0x38(%rsp,%rdx,4)
  4013cb:	83 c0 01             	add    $0x1,%eax
  4013ce:	83 f8 09             	cmp    $0x9,%eax
  4013d1:	76 ea                	jbe    4013bd <scramble+0x7>
  4013d3:	8b 44 24 e8          	mov    -0x18(%rsp),%eax
  4013d7:	69 c0 08 36 00 00    	imul   $0x3608,%eax,%eax
  4013dd:	89 44 24 e8          	mov    %eax,-0x18(%rsp)
  4013e1:	8b 44 24 e4          	mov    -0x1c(%rsp),%eax
  4013e5:	69 c0 8c 5d 00 00    	imul   $0x5d8c,%eax,%eax
  4013eb:	89 44 24 e4          	mov    %eax,-0x1c(%rsp)
  4013ef:	8b 44 24 dc          	mov    -0x24(%rsp),%eax
  4013f3:	69 c0 b6 68 00 00    	imul   $0x68b6,%eax,%eax
  4013f9:	89 44 24 dc          	mov    %eax,-0x24(%rsp)
  4013fd:	8b 44 24 e8          	mov    -0x18(%rsp),%eax
  401401:	69 c0 11 f5 00 00    	imul   $0xf511,%eax,%eax
  401407:	89 44 24 e8          	mov    %eax,-0x18(%rsp)
  40140b:	8b 44 24 dc          	mov    -0x24(%rsp),%eax
  40140f:	69 c0 64 0a 00 00    	imul   $0xa64,%eax,%eax
  401415:	89 44 24 dc          	mov    %eax,-0x24(%rsp)
  401419:	8b 44 24 e8          	mov    -0x18(%rsp),%eax
  40141d:	69 c0 c9 5d 00 00    	imul   $0x5dc9,%eax,%eax
  401423:	89 44 24 e8          	mov    %eax,-0x18(%rsp)
  401427:	8b 44 24 dc          	mov    -0x24(%rsp),%eax
  40142b:	69 c0 fd 0c 00 00    	imul   $0xcfd,%eax,%eax
  401431:	89 44 24 dc          	mov    %eax,-0x24(%rsp)
  401435:	8b 44 24 c8          	mov    -0x38(%rsp),%eax
  401439:	69 c0 00 73 00 00    	imul   $0x7300,%eax,%eax
  40143f:	89 44 24 c8          	mov    %eax,-0x38(%rsp)
  401443:	8b 44 24 e8          	mov    -0x18(%rsp),%eax
  401447:	69 c0 0b 6a 00 00    	imul   $0x6a0b,%eax,%eax
  40144d:	89 44 24 e8          	mov    %eax,-0x18(%rsp)
  401451:	8b 44 24 e4          	mov    -0x1c(%rsp),%eax
  401455:	69 c0 63 d6 00 00    	imul   $0xd663,%eax,%eax
  40145b:	89 44 24 e4          	mov    %eax,-0x1c(%rsp)
  40145f:	8b 44 24 dc          	mov    -0x24(%rsp),%eax
  401463:	69 c0 dd 10 00 00    	imul   $0x10dd,%eax,%eax
  401469:	89 44 24 dc          	mov    %eax,-0x24(%rsp)
  40146d:	8b 44 24 e8          	mov    -0x18(%rsp),%eax
  401471:	69 c0 0a a4 00 00    	imul   $0xa40a,%eax,%eax
  401477:	89 44 24 e8          	mov    %eax,-0x18(%rsp)
  40147b:	8b 44 24 cc          	mov    -0x34(%rsp),%eax
  40147f:	69 c0 b2 46 00 00    	imul   $0x46b2,%eax,%eax
  401485:	89 44 24 cc          	mov    %eax,-0x34(%rsp)
  401489:	8b 44 24 e8          	mov    -0x18(%rsp),%eax
  40148d:	69 c0 47 74 00 00    	imul   $0x7447,%eax,%eax
  401493:	89 44 24 e8          	mov    %eax,-0x18(%rsp)
  401497:	8b 44 24 dc          	mov    -0x24(%rsp),%eax
  40149b:	69 c0 55 7f 00 00    	imul   $0x7f55,%eax,%eax
  4014a1:	89 44 24 dc          	mov    %eax,-0x24(%rsp)
  4014a5:	8b 44 24 ec          	mov    -0x14(%rsp),%eax
  4014a9:	69 c0 b4 9c 00 00    	imul   $0x9cb4,%eax,%eax
  4014af:	89 44 24 ec          	mov    %eax,-0x14(%rsp)
  4014b3:	8b 44 24 d0          	mov    -0x30(%rsp),%eax
  4014b7:	69 c0 03 07 00 00    	imul   $0x703,%eax,%eax
  4014bd:	89 44 24 d0          	mov    %eax,-0x30(%rsp)
  4014c1:	8b 44 24 dc          	mov    -0x24(%rsp),%eax
  4014c5:	69 c0 3a af 00 00    	imul   $0xaf3a,%eax,%eax
  4014cb:	89 44 24 dc          	mov    %eax,-0x24(%rsp)
  4014cf:	8b 44 24 d8          	mov    -0x28(%rsp),%eax
  4014d3:	69 c0 b1 c9 00 00    	imul   $0xc9b1,%eax,%eax
  4014d9:	89 44 24 d8          	mov    %eax,-0x28(%rsp)
  4014dd:	8b 44 24 cc          	mov    -0x34(%rsp),%eax
  4014e1:	69 c0 33 34 00 00    	imul   $0x3433,%eax,%eax
  4014e7:	89 44 24 cc          	mov    %eax,-0x34(%rsp)
  4014eb:	8b 44 24 e4          	mov    -0x1c(%rsp),%eax
  4014ef:	69 c0 b5 a2 00 00    	imul   $0xa2b5,%eax,%eax
  4014f5:	89 44 24 e4          	mov    %eax,-0x1c(%rsp)
  4014f9:	8b 44 24 e8          	mov    -0x18(%rsp),%eax
  4014fd:	69 c0 07 a6 00 00    	imul   $0xa607,%eax,%eax
  401503:	89 44 24 e8          	mov    %eax,-0x18(%rsp)
  401507:	8b 44 24 ec          	mov    -0x14(%rsp),%eax
  40150b:	69 c0 5c b4 00 00    	imul   $0xb45c,%eax,%eax
  401511:	89 44 24 ec          	mov    %eax,-0x14(%rsp)
  401515:	8b 44 24 dc          	mov    -0x24(%rsp),%eax
  401519:	69 c0 9e cf 00 00    	imul   $0xcf9e,%eax,%eax
  40151f:	89 44 24 dc          	mov    %eax,-0x24(%rsp)
  401523:	8b 44 24 d4          	mov    -0x2c(%rsp),%eax
  401527:	69 c0 b9 6c 00 00    	imul   $0x6cb9,%eax,%eax
  40152d:	89 44 24 d4          	mov    %eax,-0x2c(%rsp)
  401531:	8b 44 24 e4          	mov    -0x1c(%rsp),%eax
  401535:	69 c0 29 3c 00 00    	imul   $0x3c29,%eax,%eax
  40153b:	89 44 24 e4          	mov    %eax,-0x1c(%rsp)
  40153f:	8b 44 24 ec          	mov    -0x14(%rsp),%eax
  401543:	69 c0 ff 18 00 00    	imul   $0x18ff,%eax,%eax
  401549:	89 44 24 ec          	mov    %eax,-0x14(%rsp)
  40154d:	8b 44 24 e4          	mov    -0x1c(%rsp),%eax
  401551:	69 c0 bd 04 00 00    	imul   $0x4bd,%eax,%eax
  401557:	89 44 24 e4          	mov    %eax,-0x1c(%rsp)
  40155b:	8b 44 24 cc          	mov    -0x34(%rsp),%eax
  40155f:	69 c0 76 fb 00 00    	imul   $0xfb76,%eax,%eax
  401565:	89 44 24 cc          	mov    %eax,-0x34(%rsp)
  401569:	8b 44 24 e8          	mov    -0x18(%rsp),%eax
  40156d:	69 c0 5c 45 00 00    	imul   $0x455c,%eax,%eax
  401573:	89 44 24 e8          	mov    %eax,-0x18(%rsp)
  401577:	8b 44 24 d8          	mov    -0x28(%rsp),%eax
  40157b:	69 c0 c0 10 00 00    	imul   $0x10c0,%eax,%eax
  401581:	89 44 24 d8          	mov    %eax,-0x28(%rsp)
  401585:	8b 44 24 cc          	mov    -0x34(%rsp),%eax
  401589:	69 c0 29 30 00 00    	imul   $0x3029,%eax,%eax
  40158f:	89 44 24 cc          	mov    %eax,-0x34(%rsp)
  401593:	8b 44 24 d8          	mov    -0x28(%rsp),%eax
  401597:	69 c0 50 dc 00 00    	imul   $0xdc50,%eax,%eax
  40159d:	89 44 24 d8          	mov    %eax,-0x28(%rsp)
  4015a1:	8b 44 24 e4          	mov    -0x1c(%rsp),%eax
  4015a5:	69 c0 7d 87 00 00    	imul   $0x877d,%eax,%eax
  4015ab:	89 44 24 e4          	mov    %eax,-0x1c(%rsp)
  4015af:	8b 44 24 d0          	mov    -0x30(%rsp),%eax
  4015b3:	69 c0 b0 83 00 00    	imul   $0x83b0,%eax,%eax
  4015b9:	89 44 24 d0          	mov    %eax,-0x30(%rsp)
  4015bd:	8b 44 24 cc          	mov    -0x34(%rsp),%eax
  4015c1:	69 c0 17 7a 00 00    	imul   $0x7a17,%eax,%eax
  4015c7:	89 44 24 cc          	mov    %eax,-0x34(%rsp)
  4015cb:	8b 44 24 c8          	mov    -0x38(%rsp),%eax
  4015cf:	69 c0 ad 4d 00 00    	imul   $0x4dad,%eax,%eax
  4015d5:	89 44 24 c8          	mov    %eax,-0x38(%rsp)
  4015d9:	8b 44 24 d4          	mov    -0x2c(%rsp),%eax
  4015dd:	69 c0 17 d6 00 00    	imul   $0xd617,%eax,%eax
  4015e3:	89 44 24 d4          	mov    %eax,-0x2c(%rsp)
  4015e7:	8b 44 24 ec          	mov    -0x14(%rsp),%eax
  4015eb:	69 c0 26 39 00 00    	imul   $0x3926,%eax,%eax
  4015f1:	89 44 24 ec          	mov    %eax,-0x14(%rsp)
  4015f5:	8b 44 24 cc          	mov    -0x34(%rsp),%eax
  4015f9:	69 c0 71 20 00 00    	imul   $0x2071,%eax,%eax
  4015ff:	89 44 24 cc          	mov    %eax,-0x34(%rsp)
  401603:	8b 44 24 e0          	mov    -0x20(%rsp),%eax
  401607:	69 c0 b7 4b 00 00    	imul   $0x4bb7,%eax,%eax
  40160d:	89 44 24 e0          	mov    %eax,-0x20(%rsp)
  401611:	8b 44 24 e0          	mov    -0x20(%rsp),%eax
  401615:	69 c0 76 23 00 00    	imul   $0x2376,%eax,%eax
  40161b:	89 44 24 e0          	mov    %eax,-0x20(%rsp)
  40161f:	8b 44 24 e0          	mov    -0x20(%rsp),%eax
  401623:	69 c0 cd 3c 00 00    	imul   $0x3ccd,%eax,%eax
  401629:	89 44 24 e0          	mov    %eax,-0x20(%rsp)
  40162d:	8b 44 24 e4          	mov    -0x1c(%rsp),%eax
  401631:	69 c0 67 c4 00 00    	imul   $0xc467,%eax,%eax
  401637:	89 44 24 e4          	mov    %eax,-0x1c(%rsp)
  40163b:	8b 44 24 cc          	mov    -0x34(%rsp),%eax
  40163f:	69 c0 39 a1 00 00    	imul   $0xa139,%eax,%eax
  401645:	89 44 24 cc          	mov    %eax,-0x34(%rsp)
  401649:	8b 44 24 dc          	mov    -0x24(%rsp),%eax
  40164d:	69 c0 0f b3 00 00    	imul   $0xb30f,%eax,%eax
  401653:	89 44 24 dc          	mov    %eax,-0x24(%rsp)
  401657:	8b 44 24 e4          	mov    -0x1c(%rsp),%eax
  40165b:	69 c0 d3 eb 00 00    	imul   $0xebd3,%eax,%eax
  401661:	89 44 24 e4          	mov    %eax,-0x1c(%rsp)
  401665:	8b 44 24 dc          	mov    -0x24(%rsp),%eax
  401669:	69 c0 bc c9 00 00    	imul   $0xc9bc,%eax,%eax
  40166f:	89 44 24 dc          	mov    %eax,-0x24(%rsp)
  401673:	8b 44 24 e4          	mov    -0x1c(%rsp),%eax
  401677:	69 c0 9d c2 00 00    	imul   $0xc29d,%eax,%eax
  40167d:	89 44 24 e4          	mov    %eax,-0x1c(%rsp)
  401681:	8b 44 24 d4          	mov    -0x2c(%rsp),%eax
  401685:	69 c0 25 6e 00 00    	imul   $0x6e25,%eax,%eax
  40168b:	89 44 24 d4          	mov    %eax,-0x2c(%rsp)
  40168f:	8b 44 24 d8          	mov    -0x28(%rsp),%eax
  401693:	69 c0 ea 0c 00 00    	imul   $0xcea,%eax,%eax
  401699:	89 44 24 d8          	mov    %eax,-0x28(%rsp)
  40169d:	8b 44 24 ec          	mov    -0x14(%rsp),%eax
  4016a1:	69 c0 b2 6c 00 00    	imul   $0x6cb2,%eax,%eax
  4016a7:	89 44 24 ec          	mov    %eax,-0x14(%rsp)
  4016ab:	8b 44 24 d4          	mov    -0x2c(%rsp),%eax
  4016af:	69 c0 5a 08 00 00    	imul   $0x85a,%eax,%eax
  4016b5:	89 44 24 d4          	mov    %eax,-0x2c(%rsp)
  4016b9:	8b 44 24 e0          	mov    -0x20(%rsp),%eax
  4016bd:	69 c0 a1 5c 00 00    	imul   $0x5ca1,%eax,%eax
  4016c3:	89 44 24 e0          	mov    %eax,-0x20(%rsp)
  4016c7:	8b 44 24 d8          	mov    -0x28(%rsp),%eax
  4016cb:	69 c0 7e e8 00 00    	imul   $0xe87e,%eax,%eax
  4016d1:	89 44 24 d8          	mov    %eax,-0x28(%rsp)
  4016d5:	8b 44 24 ec          	mov    -0x14(%rsp),%eax
  4016d9:	69 c0 60 e7 00 00    	imul   $0xe760,%eax,%eax
  4016df:	89 44 24 ec          	mov    %eax,-0x14(%rsp)
  4016e3:	8b 44 24 e8          	mov    -0x18(%rsp),%eax
  4016e7:	69 c0 ac d9 00 00    	imul   $0xd9ac,%eax,%eax
  4016ed:	89 44 24 e8          	mov    %eax,-0x18(%rsp)
  4016f1:	8b 44 24 e4          	mov    -0x1c(%rsp),%eax
  4016f5:	69 c0 eb 98 00 00    	imul   $0x98eb,%eax,%eax
  4016fb:	89 44 24 e4          	mov    %eax,-0x1c(%rsp)
  4016ff:	8b 44 24 cc          	mov    -0x34(%rsp),%eax
  401703:	69 c0 0a 33 00 00    	imul   $0x330a,%eax,%eax
  401709:	89 44 24 cc          	mov    %eax,-0x34(%rsp)
  40170d:	8b 44 24 d4          	mov    -0x2c(%rsp),%eax
  401711:	69 c0 bc 4e 00 00    	imul   $0x4ebc,%eax,%eax
  401717:	89 44 24 d4          	mov    %eax,-0x2c(%rsp)
  40171b:	8b 44 24 d8          	mov    -0x28(%rsp),%eax
  40171f:	69 c0 16 67 00 00    	imul   $0x6716,%eax,%eax
  401725:	89 44 24 d8          	mov    %eax,-0x28(%rsp)
  401729:	8b 44 24 d0          	mov    -0x30(%rsp),%eax
  40172d:	69 c0 3c 86 00 00    	imul   $0x863c,%eax,%eax
  401733:	89 44 24 d0          	mov    %eax,-0x30(%rsp)
  401737:	8b 44 24 ec          	mov    -0x14(%rsp),%eax
  40173b:	69 c0 05 e5 00 00    	imul   $0xe505,%eax,%eax
  401741:	89 44 24 ec          	mov    %eax,-0x14(%rsp)
  401745:	8b 44 24 d8          	mov    -0x28(%rsp),%eax
  401749:	69 c0 0d 1b 00 00    	imul   $0x1b0d,%eax,%eax
  40174f:	89 44 24 d8          	mov    %eax,-0x28(%rsp)
  401753:	8b 44 24 d0          	mov    -0x30(%rsp),%eax
  401757:	69 c0 32 a1 00 00    	imul   $0xa132,%eax,%eax
  40175d:	89 44 24 d0          	mov    %eax,-0x30(%rsp)
  401761:	8b 44 24 e8          	mov    -0x18(%rsp),%eax
  401765:	69 c0 ef ed 00 00    	imul   $0xedef,%eax,%eax
  40176b:	89 44 24 e8          	mov    %eax,-0x18(%rsp)
  40176f:	8b 44 24 d4          	mov    -0x2c(%rsp),%eax
  401773:	69 c0 6e 71 00 00    	imul   $0x716e,%eax,%eax
  401779:	89 44 24 d4          	mov    %eax,-0x2c(%rsp)
  40177d:	8b 44 24 cc          	mov    -0x34(%rsp),%eax
  401781:	69 c0 b4 08 00 00    	imul   $0x8b4,%eax,%eax
  401787:	89 44 24 cc          	mov    %eax,-0x34(%rsp)
  40178b:	8b 44 24 cc          	mov    -0x34(%rsp),%eax
  40178f:	69 c0 6a 9d 00 00    	imul   $0x9d6a,%eax,%eax
  401795:	89 44 24 cc          	mov    %eax,-0x34(%rsp)
  401799:	8b 44 24 d0          	mov    -0x30(%rsp),%eax
  40179d:	69 c0 49 bb 00 00    	imul   $0xbb49,%eax,%eax
  4017a3:	89 44 24 d0          	mov    %eax,-0x30(%rsp)
  4017a7:	8b 44 24 e4          	mov    -0x1c(%rsp),%eax
  4017ab:	69 c0 67 e2 00 00    	imul   $0xe267,%eax,%eax
  4017b1:	89 44 24 e4          	mov    %eax,-0x1c(%rsp)
  4017b5:	8b 44 24 e4          	mov    -0x1c(%rsp),%eax
  4017b9:	69 c0 1e ba 00 00    	imul   $0xba1e,%eax,%eax
  4017bf:	89 44 24 e4          	mov    %eax,-0x1c(%rsp)
  4017c3:	8b 44 24 cc          	mov    -0x34(%rsp),%eax
  4017c7:	69 c0 80 ad 00 00    	imul   $0xad80,%eax,%eax
  4017cd:	89 44 24 cc          	mov    %eax,-0x34(%rsp)
  4017d1:	8b 44 24 d0          	mov    -0x30(%rsp),%eax
  4017d5:	69 c0 8c d2 00 00    	imul   $0xd28c,%eax,%eax
  4017db:	89 44 24 d0          	mov    %eax,-0x30(%rsp)
  4017df:	8b 44 24 d0          	mov    -0x30(%rsp),%eax
  4017e3:	69 c0 5c b0 00 00    	imul   $0xb05c,%eax,%eax
  4017e9:	89 44 24 d0          	mov    %eax,-0x30(%rsp)
  4017ed:	8b 44 24 cc          	mov    -0x34(%rsp),%eax
  4017f1:	69 c0 ce b4 00 00    	imul   $0xb4ce,%eax,%eax
  4017f7:	89 44 24 cc          	mov    %eax,-0x34(%rsp)
  4017fb:	8b 44 24 e8          	mov    -0x18(%rsp),%eax
  4017ff:	69 c0 14 23 00 00    	imul   $0x2314,%eax,%eax
  401805:	89 44 24 e8          	mov    %eax,-0x18(%rsp)
  401809:	8b 44 24 ec          	mov    -0x14(%rsp),%eax
  40180d:	69 c0 5d 6a 00 00    	imul   $0x6a5d,%eax,%eax
  401813:	89 44 24 ec          	mov    %eax,-0x14(%rsp)
  401817:	8b 44 24 d0          	mov    -0x30(%rsp),%eax
  40181b:	69 c0 03 8b 00 00    	imul   $0x8b03,%eax,%eax
  401821:	89 44 24 d0          	mov    %eax,-0x30(%rsp)
  401825:	8b 44 24 e8          	mov    -0x18(%rsp),%eax
  401829:	69 c0 bb af 00 00    	imul   $0xafbb,%eax,%eax
  40182f:	89 44 24 e8          	mov    %eax,-0x18(%rsp)
  401833:	8b 44 24 d0          	mov    -0x30(%rsp),%eax
  401837:	69 c0 9d 0e 00 00    	imul   $0xe9d,%eax,%eax
  40183d:	89 44 24 d0          	mov    %eax,-0x30(%rsp)
  401841:	8b 44 24 cc          	mov    -0x34(%rsp),%eax
  401845:	69 c0 52 da 00 00    	imul   $0xda52,%eax,%eax
  40184b:	89 44 24 cc          	mov    %eax,-0x34(%rsp)
  40184f:	ba 00 00 00 00       	mov    $0x0,%edx
  401854:	b8 00 00 00 00       	mov    $0x0,%eax
  401859:	eb 0b                	jmp    401866 <scramble+0x4b0>
  40185b:	89 d1                	mov    %edx,%ecx
  40185d:	8b 4c 8c c8          	mov    -0x38(%rsp,%rcx,4),%ecx
  401861:	01 c8                	add    %ecx,%eax
  401863:	83 c2 01             	add    $0x1,%edx
  401866:	83 fa 09             	cmp    $0x9,%edx
  401869:	76 f0                	jbe    40185b <scramble+0x4a5>
  40186b:	f3 c3                	repz retq 

000000000040186d <getbuf>:
  40186d:	48 83 ec 18          	sub    $0x18,%rsp
  401871:	48 89 e7             	mov    %rsp,%rdi
  401874:	e8 a7 03 00 00       	callq  401c20 <Gets>
  401879:	b8 01 00 00 00       	mov    $0x1,%eax
  40187e:	48 83 c4 18          	add    $0x18,%rsp
  401882:	c3                   	retq   

0000000000401883 <touch1>:
  401883:	48 83 ec 08          	sub    $0x8,%rsp
  401887:	c7 05 8b 3c 20 00 01 	movl   $0x1,0x203c8b(%rip)        # 60551c <vlevel>
  40188e:	00 00 00 
  401891:	bf aa 32 40 00       	mov    $0x4032aa,%edi
  401896:	e8 45 f4 ff ff       	callq  400ce0 <puts@plt>
  40189b:	bf 01 00 00 00       	mov    $0x1,%edi
  4018a0:	e8 d1 05 00 00       	callq  401e76 <validate>
  4018a5:	bf 00 00 00 00       	mov    $0x0,%edi
  4018aa:	e8 c1 f5 ff ff       	callq  400e70 <exit@plt>

00000000004018af <touch2>:
  4018af:	48 83 ec 08          	sub    $0x8,%rsp
  4018b3:	89 fa                	mov    %edi,%edx
  4018b5:	c7 05 5d 3c 20 00 02 	movl   $0x2,0x203c5d(%rip)        # 60551c <vlevel>
  4018bc:	00 00 00 
  4018bf:	3b 3d 5f 3c 20 00    	cmp    0x203c5f(%rip),%edi        # 605524 <cookie>
  4018c5:	75 20                	jne    4018e7 <touch2+0x38>
  4018c7:	be d0 32 40 00       	mov    $0x4032d0,%esi
  4018cc:	bf 01 00 00 00       	mov    $0x1,%edi
  4018d1:	b8 00 00 00 00       	mov    $0x0,%eax
  4018d6:	e8 45 f5 ff ff       	callq  400e20 <__printf_chk@plt>
  4018db:	bf 02 00 00 00       	mov    $0x2,%edi
  4018e0:	e8 91 05 00 00       	callq  401e76 <validate>
  4018e5:	eb 1e                	jmp    401905 <touch2+0x56>
  4018e7:	be f8 32 40 00       	mov    $0x4032f8,%esi
  4018ec:	bf 01 00 00 00       	mov    $0x1,%edi
  4018f1:	b8 00 00 00 00       	mov    $0x0,%eax
  4018f6:	e8 25 f5 ff ff       	callq  400e20 <__printf_chk@plt>
  4018fb:	bf 02 00 00 00       	mov    $0x2,%edi
  401900:	e8 33 06 00 00       	callq  401f38 <fail>
  401905:	bf 00 00 00 00       	mov    $0x0,%edi
  40190a:	e8 61 f5 ff ff       	callq  400e70 <exit@plt>

000000000040190f <hexmatch>:
  40190f:	41 54                	push   %r12
  401911:	55                   	push   %rbp
  401912:	53                   	push   %rbx
  401913:	48 83 c4 80          	add    $0xffffffffffffff80,%rsp
  401917:	41 89 fc             	mov    %edi,%r12d
  40191a:	48 89 f5             	mov    %rsi,%rbp
  40191d:	64 48 8b 04 25 28 00 	mov    %fs:0x28,%rax
  401924:	00 00 
  401926:	48 89 44 24 78       	mov    %rax,0x78(%rsp)
  40192b:	31 c0                	xor    %eax,%eax
  40192d:	e8 ae f4 ff ff       	callq  400de0 <random@plt>
  401932:	48 89 c1             	mov    %rax,%rcx
  401935:	48 ba 0b d7 a3 70 3d 	movabs $0xa3d70a3d70a3d70b,%rdx
  40193c:	0a d7 a3 
  40193f:	48 f7 ea             	imul   %rdx
  401942:	48 01 ca             	add    %rcx,%rdx
  401945:	48 c1 fa 06          	sar    $0x6,%rdx
  401949:	48 89 c8             	mov    %rcx,%rax
  40194c:	48 c1 f8 3f          	sar    $0x3f,%rax
  401950:	48 29 c2             	sub    %rax,%rdx
  401953:	48 8d 04 92          	lea    (%rdx,%rdx,4),%rax
  401957:	48 8d 04 80          	lea    (%rax,%rax,4),%rax
  40195b:	48 c1 e0 02          	shl    $0x2,%rax
  40195f:	48 29 c1             	sub    %rax,%rcx
  401962:	48 8d 1c 0c          	lea    (%rsp,%rcx,1),%rbx
  401966:	45 89 e0             	mov    %r12d,%r8d
  401969:	b9 c7 32 40 00       	mov    $0x4032c7,%ecx
  40196e:	48 c7 c2 ff ff ff ff 	mov    $0xffffffffffffffff,%rdx
  401975:	be 01 00 00 00       	mov    $0x1,%esi
  40197a:	48 89 df             	mov    %rbx,%rdi
  40197d:	b8 00 00 00 00       	mov    $0x0,%eax
  401982:	e8 19 f5 ff ff       	callq  400ea0 <__sprintf_chk@plt>
  401987:	ba 09 00 00 00       	mov    $0x9,%edx
  40198c:	48 89 de             	mov    %rbx,%rsi
  40198f:	48 89 ef             	mov    %rbp,%rdi
  401992:	e8 29 f3 ff ff       	callq  400cc0 <strncmp@plt>
  401997:	85 c0                	test   %eax,%eax
  401999:	0f 94 c0             	sete   %al
  40199c:	0f b6 c0             	movzbl %al,%eax
  40199f:	48 8b 74 24 78       	mov    0x78(%rsp),%rsi
  4019a4:	64 48 33 34 25 28 00 	xor    %fs:0x28,%rsi
  4019ab:	00 00 
  4019ad:	74 05                	je     4019b4 <hexmatch+0xa5>
  4019af:	e8 4c f3 ff ff       	callq  400d00 <__stack_chk_fail@plt>
  4019b4:	48 83 ec 80          	sub    $0xffffffffffffff80,%rsp
  4019b8:	5b                   	pop    %rbx
  4019b9:	5d                   	pop    %rbp
  4019ba:	41 5c                	pop    %r12
  4019bc:	c3                   	retq   

00000000004019bd <touch3>:
  4019bd:	53                   	push   %rbx
  4019be:	48 89 fb             	mov    %rdi,%rbx
  4019c1:	c7 05 51 3b 20 00 03 	movl   $0x3,0x203b51(%rip)        # 60551c <vlevel>
  4019c8:	00 00 00 
  4019cb:	48 89 fe             	mov    %rdi,%rsi
  4019ce:	8b 3d 50 3b 20 00    	mov    0x203b50(%rip),%edi        # 605524 <cookie>
  4019d4:	e8 36 ff ff ff       	callq  40190f <hexmatch>
  4019d9:	85 c0                	test   %eax,%eax
  4019db:	74 23                	je     401a00 <touch3+0x43>
  4019dd:	48 89 da             	mov    %rbx,%rdx
  4019e0:	be 20 33 40 00       	mov    $0x403320,%esi
  4019e5:	bf 01 00 00 00       	mov    $0x1,%edi
  4019ea:	b8 00 00 00 00       	mov    $0x0,%eax
  4019ef:	e8 2c f4 ff ff       	callq  400e20 <__printf_chk@plt>
  4019f4:	bf 03 00 00 00       	mov    $0x3,%edi
  4019f9:	e8 78 04 00 00       	callq  401e76 <validate>
  4019fe:	eb 21                	jmp    401a21 <touch3+0x64>
  401a00:	48 89 da             	mov    %rbx,%rdx
  401a03:	be 48 33 40 00       	mov    $0x403348,%esi
  401a08:	bf 01 00 00 00       	mov    $0x1,%edi
  401a0d:	b8 00 00 00 00       	mov    $0x0,%eax
  401a12:	e8 09 f4 ff ff       	callq  400e20 <__printf_chk@plt>
  401a17:	bf 03 00 00 00       	mov    $0x3,%edi
  401a1c:	e8 17 05 00 00       	callq  401f38 <fail>
  401a21:	bf 00 00 00 00       	mov    $0x0,%edi
  401a26:	e8 45 f4 ff ff       	callq  400e70 <exit@plt>

0000000000401a2b <test>:
  401a2b:	48 83 ec 08          	sub    $0x8,%rsp
  401a2f:	b8 00 00 00 00       	mov    $0x0,%eax
  401a34:	e8 34 fe ff ff       	callq  40186d <getbuf>
  401a39:	89 c2                	mov    %eax,%edx
  401a3b:	be 70 33 40 00       	mov    $0x403370,%esi
  401a40:	bf 01 00 00 00       	mov    $0x1,%edi
  401a45:	b8 00 00 00 00       	mov    $0x0,%eax
  401a4a:	e8 d1 f3 ff ff       	callq  400e20 <__printf_chk@plt>
  401a4f:	48 83 c4 08          	add    $0x8,%rsp
  401a53:	c3                   	retq   


STARTTTTTTTTTTIH(UFHOIWUHGEFHWEFLKJHEFLKGWEFKGWLEKFGJELF


0000000000401a54 <start_farm>:
  401a54:	b8 01 00 00 00       	mov    $0x1,%eax
  401a59:	c3                   	retq   

0000000000401a5a <addval_466>:
  401a5a:	8d 87 48 89 c7 c3    	lea    -0x3c3876b8(%rdi),%eax
  401a60:	c3                   	retq   

0000000000401a61 <addval_289>:
  401a61:	8d 87 e2 58 90 90    	lea    -0x6f6fa71e(%rdi),%eax
  401a67:	c3                   	retq   

0000000000401a68 <setval_339>:
  401a68:	c7 07 48 89 c7 c3    	movl   $0xc3c78948,(%rdi)
  401a6e:	c3                   	retq   

0000000000401a6f <addval_332>:
  401a6f:	8d 87 48 88 c7 c3    	lea    -0x3c3877b8(%rdi),%eax
  401a75:	c3                   	retq   

0000000000401a76 <getval_248>:
  401a76:	b8 ad 8c 28 58       	mov    $0x58288cad,%eax
  401a7b:	c3                   	retq   

0000000000401a7c <setval_116>:
  401a7c:	c7 07 48 89 c7 c1    	movl   $0xc1c78948,(%rdi)
  401a82:	c3                   	retq   

0000000000401a83 <addval_105>:
  401a83:	8d 87 ff 09 f4 50    	lea    0x50f409ff(%rdi),%eax
  401a89:	c3                   	retq   

0000000000401a8a <setval_100>:
  401a8a:	c7 07 58 90 92 c3    	movl   $0xc3929058,(%rdi)
  401a90:	c3                   	retq   

0000000000401a91 <mid_farm>:
  401a91:	b8 01 00 00 00       	mov    $0x1,%eax
  401a96:	c3                   	retq   


STOP!!!!!!!!!!OIUHFIHIHSDLKJFHLKSJHEFOIUWH#P(FG@PFGFOIYFISFISFIFI


0000000000401a97 <add_xy>:
  401a97:	48 8d 04 37          	lea    (%rdi,%rsi,1),%rax
  401a9b:	c3                   	retq   

0000000000401a9c <getval_163>:
  401a9c:	b8 8b d1 38 db       	mov    $0xdb38d18b,%eax
  401aa1:	c3                   	retq   

0000000000401aa2 <setval_176>:
  401aa2:	c7 07 9a a9 d1 90    	movl   $0x90d1a99a,(%rdi)
  401aa8:	c3                   	retq   

0000000000401aa9 <getval_362>:
  401aa9:	b8 89 c2 c4 c0       	mov    $0xc0c4c289,%eax
  401aae:	c3                   	retq   

0000000000401aaf <addval_382>:
  401aaf:	8d 87 89 ce 78 c0    	lea    -0x3f873177(%rdi),%eax
  401ab5:	c3                   	retq   

0000000000401ab6 <addval_299>:
  401ab6:	8d 87 ba 89 c2 c3    	lea    -0x3c3d7646(%rdi),%eax
  401abc:	c3                   	retq   

0000000000401abd <addval_441>:
  401abd:	8d 87 38 48 81 e0    	lea    -0x1f7eb7c8(%rdi),%eax
  401ac3:	c3                   	retq   

0000000000401ac4 <getval_306>:
  401ac4:	b8 a9 ce 90 c3       	mov    $0xc390cea9,%eax
  401ac9:	c3                   	retq   

0000000000401aca <addval_177>:
  401aca:	8d 87 89 d1 90 90    	lea    -0x6f6f2e77(%rdi),%eax
  401ad0:	c3                   	retq   

0000000000401ad1 <addval_132>:
  401ad1:	8d 87 48 89 e0 94    	lea    -0x6b1f76b8(%rdi),%eax
  401ad7:	c3                   	retq   

0000000000401ad8 <getval_420>:
  401ad8:	b8 ac 89 ce 90       	mov    $0x90ce89ac,%eax
  401add:	c3                   	retq   

0000000000401ade <getval_454>:
  401ade:	b8 4c 89 d1 94       	mov    $0x94d1894c,%eax
  401ae3:	c3                   	retq   

0000000000401ae4 <addval_371>:
  401ae4:	8d 87 81 c2 20 c0    	lea    -0x3fdf3d7f(%rdi),%eax
  401aea:	c3                   	retq   

0000000000401aeb <addval_187>:
  401aeb:	8d 87 89 c2 60 d2    	lea    -0x2d9f3d77(%rdi),%eax
  401af1:	c3                   	retq   

0000000000401af2 <getval_264>:
  401af2:	b8 48 89 e0 92       	mov    $0x92e08948,%eax
  401af7:	c3                   	retq   

0000000000401af8 <addval_389>:
  401af8:	8d 87 8b d1 c3 84    	lea    -0x7b3c2e75(%rdi),%eax
  401afe:	c3                   	retq   

0000000000401aff <getval_207>:
  401aff:	b8 c9 ce 20 c0       	mov    $0xc020cec9,%eax
  401b04:	c3                   	retq   

0000000000401b05 <getval_243>:
  401b05:	b8 48 89 e0 c7       	mov    $0xc7e08948,%eax
  401b0a:	c3                   	retq   

0000000000401b0b <setval_351>:
  401b0b:	c7 07 c9 ce 20 d2    	movl   $0xd220cec9,(%rdi)
  401b11:	c3                   	retq   

0000000000401b12 <getval_450>:
  401b12:	b8 48 89 e0 c3       	mov    $0xc3e08948,%eax
  401b17:	c3                   	retq   

0000000000401b18 <setval_265>:
  401b18:	c7 07 88 ce 08 c9    	movl   $0xc908ce88,(%rdi)
  401b1e:	c3                   	retq   

0000000000401b1f <setval_384>:
  401b1f:	c7 07 89 c2 84 db    	movl   $0xdb84c289,(%rdi)
  401b25:	c3                   	retq   

0000000000401b26 <addval_206>:
  401b26:	8d 87 89 d1 92 c3    	lea    -0x3c6d2e77(%rdi),%eax
  401b2c:	c3                   	retq   

0000000000401b2d <getval_262>:
  401b2d:	b8 48 89 e0 c2       	mov    $0xc2e08948,%eax
  401b32:	c3                   	retq   

0000000000401b33 <setval_367>:
  401b33:	c7 07 89 d1 94 c0    	movl   $0xc094d189,(%rdi)
  401b39:	c3                   	retq   

0000000000401b3a <getval_449>:
  401b3a:	b8 89 ce 38 c9       	mov    $0xc938ce89,%eax
  401b3f:	c3                   	retq   

0000000000401b40 <addval_331>:
  401b40:	8d 87 8d ce 08 c9    	lea    -0x36f73173(%rdi),%eax
  401b46:	c3                   	retq   

0000000000401b47 <getval_101>:
  401b47:	b8 89 d1 38 c9       	mov    $0xc938d189,%eax
  401b4c:	c3                   	retq   

0000000000401b4d <addval_158>:
  401b4d:	8d 87 8b c2 84 c0    	lea    -0x3f7b3d75(%rdi),%eax
  401b53:	c3                   	retq   

0000000000401b54 <setval_127>:
  401b54:	c7 07 99 c2 20 db    	movl   $0xdb20c299,(%rdi)
  401b5a:	c3                   	retq   

0000000000401b5b <addval_333>:
  401b5b:	8d 87 3f 48 81 e0    	lea    -0x1f7eb7c1(%rdi),%eax
  401b61:	c3                   	retq   

0000000000401b62 <getval_107>:
  401b62:	b8 81 c2 38 c0       	mov    $0xc038c281,%eax
  401b67:	c3                   	retq   

0000000000401b68 <setval_272>:
  401b68:	c7 07 48 89 e0 90    	movl   $0x90e08948,(%rdi)
  401b6e:	c3                   	retq   

0000000000401b6f <end_farm>:
  401b6f:	b8 01 00 00 00       	mov    $0x1,%eax
  401b74:	c3                   	retq   
  401b75:	66 2e 0f 1f 84 00 00 	nopw   %cs:0x0(%rax,%rax,1)
  401b7c:	00 00 00 
  401b7f:	90                   	nop

0000000000401b80 <save_char>:
  401b80:	8b 05 be 45 20 00    	mov    0x2045be(%rip),%eax        # 606144 <gets_cnt>
  401b86:	3d ff 03 00 00       	cmp    $0x3ff,%eax
  401b8b:	7f 49                	jg     401bd6 <save_char+0x56>
  401b8d:	8d 14 40             	lea    (%rax,%rax,2),%edx
  401b90:	89 f9                	mov    %edi,%ecx
  401b92:	c0 e9 04             	shr    $0x4,%cl
  401b95:	83 e1 0f             	and    $0xf,%ecx
  401b98:	0f b6 b1 90 36 40 00 	movzbl 0x403690(%rcx),%esi
  401b9f:	48 63 ca             	movslq %edx,%rcx
  401ba2:	40 88 b1 40 55 60 00 	mov    %sil,0x605540(%rcx)
  401ba9:	8d 4a 01             	lea    0x1(%rdx),%ecx
  401bac:	83 e7 0f             	and    $0xf,%edi
  401baf:	0f b6 b7 90 36 40 00 	movzbl 0x403690(%rdi),%esi
  401bb6:	48 63 c9             	movslq %ecx,%rcx
  401bb9:	40 88 b1 40 55 60 00 	mov    %sil,0x605540(%rcx)
  401bc0:	83 c2 02             	add    $0x2,%edx
  401bc3:	48 63 d2             	movslq %edx,%rdx
  401bc6:	c6 82 40 55 60 00 20 	movb   $0x20,0x605540(%rdx)
  401bcd:	83 c0 01             	add    $0x1,%eax
  401bd0:	89 05 6e 45 20 00    	mov    %eax,0x20456e(%rip)        # 606144 <gets_cnt>
  401bd6:	f3 c3                	repz retq 

0000000000401bd8 <save_term>:
  401bd8:	8b 05 66 45 20 00    	mov    0x204566(%rip),%eax        # 606144 <gets_cnt>
  401bde:	8d 04 40             	lea    (%rax,%rax,2),%eax
  401be1:	48 98                	cltq   
  401be3:	c6 80 40 55 60 00 00 	movb   $0x0,0x605540(%rax)
  401bea:	c3                   	retq   

0000000000401beb <check_fail>:
  401beb:	48 83 ec 08          	sub    $0x8,%rsp
  401bef:	0f be 15 52 45 20 00 	movsbl 0x204552(%rip),%edx        # 606148 <target_prefix>
  401bf6:	41 b8 40 55 60 00    	mov    $0x605540,%r8d
  401bfc:	8b 0d 16 39 20 00    	mov    0x203916(%rip),%ecx        # 605518 <check_level>
  401c02:	be 93 33 40 00       	mov    $0x403393,%esi
  401c07:	bf 01 00 00 00       	mov    $0x1,%edi
  401c0c:	b8 00 00 00 00       	mov    $0x0,%eax
  401c11:	e8 0a f2 ff ff       	callq  400e20 <__printf_chk@plt>
  401c16:	bf 01 00 00 00       	mov    $0x1,%edi
  401c1b:	e8 50 f2 ff ff       	callq  400e70 <exit@plt>

0000000000401c20 <Gets>:
  401c20:	41 54                	push   %r12
  401c22:	55                   	push   %rbp
  401c23:	53                   	push   %rbx
  401c24:	49 89 fc             	mov    %rdi,%r12
  401c27:	c7 05 13 45 20 00 00 	movl   $0x0,0x204513(%rip)        # 606144 <gets_cnt>
  401c2e:	00 00 00 
  401c31:	48 89 fb             	mov    %rdi,%rbx
  401c34:	eb 11                	jmp    401c47 <Gets+0x27>
  401c36:	48 8d 6b 01          	lea    0x1(%rbx),%rbp
  401c3a:	88 03                	mov    %al,(%rbx)
  401c3c:	0f b6 f8             	movzbl %al,%edi
  401c3f:	e8 3c ff ff ff       	callq  401b80 <save_char>
  401c44:	48 89 eb             	mov    %rbp,%rbx
  401c47:	48 8b 3d c2 38 20 00 	mov    0x2038c2(%rip),%rdi        # 605510 <infile>
  401c4e:	e8 9d f1 ff ff       	callq  400df0 <_IO_getc@plt>
  401c53:	83 f8 ff             	cmp    $0xffffffff,%eax
  401c56:	74 05                	je     401c5d <Gets+0x3d>
  401c58:	83 f8 0a             	cmp    $0xa,%eax
  401c5b:	75 d9                	jne    401c36 <Gets+0x16>
  401c5d:	c6 03 00             	movb   $0x0,(%rbx)
  401c60:	b8 00 00 00 00       	mov    $0x0,%eax
  401c65:	e8 6e ff ff ff       	callq  401bd8 <save_term>
  401c6a:	4c 89 e0             	mov    %r12,%rax
  401c6d:	5b                   	pop    %rbx
  401c6e:	5d                   	pop    %rbp
  401c6f:	41 5c                	pop    %r12
  401c71:	c3                   	retq   

0000000000401c72 <notify_server>:
  401c72:	53                   	push   %rbx
  401c73:	48 81 ec 30 40 00 00 	sub    $0x4030,%rsp
  401c7a:	64 48 8b 04 25 28 00 	mov    %fs:0x28,%rax
  401c81:	00 00 
  401c83:	48 89 84 24 28 40 00 	mov    %rax,0x4028(%rsp)
  401c8a:	00 
  401c8b:	31 c0                	xor    %eax,%eax
  401c8d:	83 3d 94 38 20 00 00 	cmpl   $0x0,0x203894(%rip)        # 605528 <is_checker>
  401c94:	0f 85 bb 01 00 00    	jne    401e55 <notify_server+0x1e3>
  401c9a:	89 fb                	mov    %edi,%ebx
  401c9c:	8b 05 a2 44 20 00    	mov    0x2044a2(%rip),%eax        # 606144 <gets_cnt>
  401ca2:	83 c0 64             	add    $0x64,%eax
  401ca5:	3d 00 20 00 00       	cmp    $0x2000,%eax
  401caa:	7e 1e                	jle    401cca <notify_server+0x58>
  401cac:	be c8 34 40 00       	mov    $0x4034c8,%esi
  401cb1:	bf 01 00 00 00       	mov    $0x1,%edi
  401cb6:	b8 00 00 00 00       	mov    $0x0,%eax
  401cbb:	e8 60 f1 ff ff       	callq  400e20 <__printf_chk@plt>
  401cc0:	bf 01 00 00 00       	mov    $0x1,%edi
  401cc5:	e8 a6 f1 ff ff       	callq  400e70 <exit@plt>
  401cca:	0f be 05 77 44 20 00 	movsbl 0x204477(%rip),%eax        # 606148 <target_prefix>
  401cd1:	83 3d d0 37 20 00 00 	cmpl   $0x0,0x2037d0(%rip)        # 6054a8 <notify>
  401cd8:	74 08                	je     401ce2 <notify_server+0x70>
  401cda:	8b 15 40 38 20 00    	mov    0x203840(%rip),%edx        # 605520 <authkey>
  401ce0:	eb 05                	jmp    401ce7 <notify_server+0x75>
  401ce2:	ba ff ff ff ff       	mov    $0xffffffff,%edx
  401ce7:	85 db                	test   %ebx,%ebx
  401ce9:	74 08                	je     401cf3 <notify_server+0x81>
  401ceb:	41 b9 a9 33 40 00    	mov    $0x4033a9,%r9d
  401cf1:	eb 06                	jmp    401cf9 <notify_server+0x87>
  401cf3:	41 b9 ae 33 40 00    	mov    $0x4033ae,%r9d
  401cf9:	48 c7 44 24 18 40 55 	movq   $0x605540,0x18(%rsp)
  401d00:	60 00 
  401d02:	89 74 24 10          	mov    %esi,0x10(%rsp)
  401d06:	89 44 24 08          	mov    %eax,0x8(%rsp)
  401d0a:	89 14 24             	mov    %edx,(%rsp)
  401d0d:	44 8b 05 54 34 20 00 	mov    0x203454(%rip),%r8d        # 605168 <target_id>
  401d14:	b9 b3 33 40 00       	mov    $0x4033b3,%ecx
  401d19:	ba 00 20 00 00       	mov    $0x2000,%edx
  401d1e:	be 01 00 00 00       	mov    $0x1,%esi
  401d23:	48 8d 7c 24 20       	lea    0x20(%rsp),%rdi
  401d28:	b8 00 00 00 00       	mov    $0x0,%eax
  401d2d:	e8 6e f1 ff ff       	callq  400ea0 <__sprintf_chk@plt>
  401d32:	83 3d 6f 37 20 00 00 	cmpl   $0x0,0x20376f(%rip)        # 6054a8 <notify>
  401d39:	0f 84 86 00 00 00    	je     401dc5 <notify_server+0x153>
  401d3f:	85 db                	test   %ebx,%ebx
  401d41:	74 70                	je     401db3 <notify_server+0x141>
  401d43:	4c 8d 8c 24 20 20 00 	lea    0x2020(%rsp),%r9
  401d4a:	00 
  401d4b:	41 b8 00 00 00 00    	mov    $0x0,%r8d
  401d51:	48 8d 4c 24 20       	lea    0x20(%rsp),%rcx
  401d56:	48 8b 15 13 34 20 00 	mov    0x203413(%rip),%rdx        # 605170 <lab>
  401d5d:	48 8b 35 14 34 20 00 	mov    0x203414(%rip),%rsi        # 605178 <course>
  401d64:	48 8b 3d f5 33 20 00 	mov    0x2033f5(%rip),%rdi        # 605160 <user_id>
  401d6b:	e8 be 10 00 00       	callq  402e2e <driver_post>
  401d70:	85 c0                	test   %eax,%eax
  401d72:	79 26                	jns    401d9a <notify_server+0x128>
  401d74:	48 8d 94 24 20 20 00 	lea    0x2020(%rsp),%rdx
  401d7b:	00 
  401d7c:	be cf 33 40 00       	mov    $0x4033cf,%esi
  401d81:	bf 01 00 00 00       	mov    $0x1,%edi
  401d86:	b8 00 00 00 00       	mov    $0x0,%eax
  401d8b:	e8 90 f0 ff ff       	callq  400e20 <__printf_chk@plt>
  401d90:	bf 01 00 00 00       	mov    $0x1,%edi
  401d95:	e8 d6 f0 ff ff       	callq  400e70 <exit@plt>
  401d9a:	bf f8 34 40 00       	mov    $0x4034f8,%edi
  401d9f:	e8 3c ef ff ff       	callq  400ce0 <puts@plt>
  401da4:	bf db 33 40 00       	mov    $0x4033db,%edi
  401da9:	e8 32 ef ff ff       	callq  400ce0 <puts@plt>
  401dae:	e9 a2 00 00 00       	jmpq   401e55 <notify_server+0x1e3>
  401db3:	bf e5 33 40 00       	mov    $0x4033e5,%edi
  401db8:	e8 23 ef ff ff       	callq  400ce0 <puts@plt>
  401dbd:	0f 1f 00             	nopl   (%rax)
  401dc0:	e9 90 00 00 00       	jmpq   401e55 <notify_server+0x1e3>
  401dc5:	85 db                	test   %ebx,%ebx
  401dc7:	74 09                	je     401dd2 <notify_server+0x160>
  401dc9:	ba a9 33 40 00       	mov    $0x4033a9,%edx
  401dce:	66 90                	xchg   %ax,%ax
  401dd0:	eb 05                	jmp    401dd7 <notify_server+0x165>
  401dd2:	ba ae 33 40 00       	mov    $0x4033ae,%edx
  401dd7:	be 30 35 40 00       	mov    $0x403530,%esi
  401ddc:	bf 01 00 00 00       	mov    $0x1,%edi
  401de1:	b8 00 00 00 00       	mov    $0x0,%eax
  401de6:	e8 35 f0 ff ff       	callq  400e20 <__printf_chk@plt>
  401deb:	48 8b 15 6e 33 20 00 	mov    0x20336e(%rip),%rdx        # 605160 <user_id>
  401df2:	be ec 33 40 00       	mov    $0x4033ec,%esi
  401df7:	bf 01 00 00 00       	mov    $0x1,%edi
  401dfc:	b8 00 00 00 00       	mov    $0x0,%eax
  401e01:	e8 1a f0 ff ff       	callq  400e20 <__printf_chk@plt>
  401e06:	48 8b 15 6b 33 20 00 	mov    0x20336b(%rip),%rdx        # 605178 <course>
  401e0d:	be f9 33 40 00       	mov    $0x4033f9,%esi
  401e12:	bf 01 00 00 00       	mov    $0x1,%edi
  401e17:	b8 00 00 00 00       	mov    $0x0,%eax
  401e1c:	e8 ff ef ff ff       	callq  400e20 <__printf_chk@plt>
  401e21:	48 8b 15 48 33 20 00 	mov    0x203348(%rip),%rdx        # 605170 <lab>
  401e28:	be 05 34 40 00       	mov    $0x403405,%esi
  401e2d:	bf 01 00 00 00       	mov    $0x1,%edi
  401e32:	b8 00 00 00 00       	mov    $0x0,%eax
  401e37:	e8 e4 ef ff ff       	callq  400e20 <__printf_chk@plt>
  401e3c:	48 8d 54 24 20       	lea    0x20(%rsp),%rdx
  401e41:	be 0e 34 40 00       	mov    $0x40340e,%esi
  401e46:	bf 01 00 00 00       	mov    $0x1,%edi
  401e4b:	b8 00 00 00 00       	mov    $0x0,%eax
  401e50:	e8 cb ef ff ff       	callq  400e20 <__printf_chk@plt>
  401e55:	48 8b 84 24 28 40 00 	mov    0x4028(%rsp),%rax
  401e5c:	00 
  401e5d:	64 48 33 04 25 28 00 	xor    %fs:0x28,%rax
  401e64:	00 00 
  401e66:	74 05                	je     401e6d <notify_server+0x1fb>
  401e68:	e8 93 ee ff ff       	callq  400d00 <__stack_chk_fail@plt>
  401e6d:	48 81 c4 30 40 00 00 	add    $0x4030,%rsp
  401e74:	5b                   	pop    %rbx
  401e75:	c3                   	retq   

0000000000401e76 <validate>:
  401e76:	53                   	push   %rbx
  401e77:	89 fb                	mov    %edi,%ebx
  401e79:	83 3d a8 36 20 00 00 	cmpl   $0x0,0x2036a8(%rip)        # 605528 <is_checker>
  401e80:	74 6b                	je     401eed <validate+0x77>
  401e82:	39 3d 94 36 20 00    	cmp    %edi,0x203694(%rip)        # 60551c <vlevel>
  401e88:	74 14                	je     401e9e <validate+0x28>
  401e8a:	bf 1a 34 40 00       	mov    $0x40341a,%edi
  401e8f:	e8 4c ee ff ff       	callq  400ce0 <puts@plt>
  401e94:	b8 00 00 00 00       	mov    $0x0,%eax
  401e99:	e8 4d fd ff ff       	callq  401beb <check_fail>
  401e9e:	8b 15 74 36 20 00    	mov    0x203674(%rip),%edx        # 605518 <check_level>
  401ea4:	39 fa                	cmp    %edi,%edx
  401ea6:	74 20                	je     401ec8 <validate+0x52>
  401ea8:	89 f9                	mov    %edi,%ecx
  401eaa:	be 58 35 40 00       	mov    $0x403558,%esi
  401eaf:	bf 01 00 00 00       	mov    $0x1,%edi
  401eb4:	b8 00 00 00 00       	mov    $0x0,%eax
  401eb9:	e8 62 ef ff ff       	callq  400e20 <__printf_chk@plt>
  401ebe:	b8 00 00 00 00       	mov    $0x0,%eax
  401ec3:	e8 23 fd ff ff       	callq  401beb <check_fail>
  401ec8:	0f be 15 79 42 20 00 	movsbl 0x204279(%rip),%edx        # 606148 <target_prefix>
  401ecf:	41 b8 40 55 60 00    	mov    $0x605540,%r8d
  401ed5:	89 f9                	mov    %edi,%ecx
  401ed7:	be 38 34 40 00       	mov    $0x403438,%esi
  401edc:	bf 01 00 00 00       	mov    $0x1,%edi
  401ee1:	b8 00 00 00 00       	mov    $0x0,%eax
  401ee6:	e8 35 ef ff ff       	callq  400e20 <__printf_chk@plt>
  401eeb:	eb 49                	jmp    401f36 <validate+0xc0>
  401eed:	39 3d 29 36 20 00    	cmp    %edi,0x203629(%rip)        # 60551c <vlevel>
  401ef3:	74 18                	je     401f0d <validate+0x97>
  401ef5:	bf 1a 34 40 00       	mov    $0x40341a,%edi
  401efa:	e8 e1 ed ff ff       	callq  400ce0 <puts@plt>
  401eff:	89 de                	mov    %ebx,%esi
  401f01:	bf 00 00 00 00       	mov    $0x0,%edi
  401f06:	e8 67 fd ff ff       	callq  401c72 <notify_server>
  401f0b:	eb 29                	jmp    401f36 <validate+0xc0>
  401f0d:	0f be 0d 34 42 20 00 	movsbl 0x204234(%rip),%ecx        # 606148 <target_prefix>
  401f14:	89 fa                	mov    %edi,%edx
  401f16:	be 80 35 40 00       	mov    $0x403580,%esi
  401f1b:	bf 01 00 00 00       	mov    $0x1,%edi
  401f20:	b8 00 00 00 00       	mov    $0x0,%eax
  401f25:	e8 f6 ee ff ff       	callq  400e20 <__printf_chk@plt>
  401f2a:	89 de                	mov    %ebx,%esi
  401f2c:	bf 01 00 00 00       	mov    $0x1,%edi
  401f31:	e8 3c fd ff ff       	callq  401c72 <notify_server>
  401f36:	5b                   	pop    %rbx
  401f37:	c3                   	retq   

0000000000401f38 <fail>:
  401f38:	48 83 ec 08          	sub    $0x8,%rsp
  401f3c:	83 3d e5 35 20 00 00 	cmpl   $0x0,0x2035e5(%rip)        # 605528 <is_checker>
  401f43:	74 0a                	je     401f4f <fail+0x17>
  401f45:	b8 00 00 00 00       	mov    $0x0,%eax
  401f4a:	e8 9c fc ff ff       	callq  401beb <check_fail>
  401f4f:	89 fe                	mov    %edi,%esi
  401f51:	bf 00 00 00 00       	mov    $0x0,%edi
  401f56:	e8 17 fd ff ff       	callq  401c72 <notify_server>
  401f5b:	48 83 c4 08          	add    $0x8,%rsp
  401f5f:	c3                   	retq   

0000000000401f60 <bushandler>:
  401f60:	48 83 ec 08          	sub    $0x8,%rsp
  401f64:	83 3d bd 35 20 00 00 	cmpl   $0x0,0x2035bd(%rip)        # 605528 <is_checker>
  401f6b:	74 14                	je     401f81 <bushandler+0x21>
  401f6d:	bf 4d 34 40 00       	mov    $0x40344d,%edi
  401f72:	e8 69 ed ff ff       	callq  400ce0 <puts@plt>
  401f77:	b8 00 00 00 00       	mov    $0x0,%eax
  401f7c:	e8 6a fc ff ff       	callq  401beb <check_fail>
  401f81:	bf b8 35 40 00       	mov    $0x4035b8,%edi
  401f86:	e8 55 ed ff ff       	callq  400ce0 <puts@plt>
  401f8b:	bf 57 34 40 00       	mov    $0x403457,%edi
  401f90:	e8 4b ed ff ff       	callq  400ce0 <puts@plt>
  401f95:	be 00 00 00 00       	mov    $0x0,%esi
  401f9a:	bf 00 00 00 00       	mov    $0x0,%edi
  401f9f:	e8 ce fc ff ff       	callq  401c72 <notify_server>
  401fa4:	bf 01 00 00 00       	mov    $0x1,%edi
  401fa9:	e8 c2 ee ff ff       	callq  400e70 <exit@plt>

0000000000401fae <seghandler>:
  401fae:	48 83 ec 08          	sub    $0x8,%rsp
  401fb2:	83 3d 6f 35 20 00 00 	cmpl   $0x0,0x20356f(%rip)        # 605528 <is_checker>
  401fb9:	74 14                	je     401fcf <seghandler+0x21>
  401fbb:	bf 6d 34 40 00       	mov    $0x40346d,%edi
  401fc0:	e8 1b ed ff ff       	callq  400ce0 <puts@plt>
  401fc5:	b8 00 00 00 00       	mov    $0x0,%eax
  401fca:	e8 1c fc ff ff       	callq  401beb <check_fail>
  401fcf:	bf d8 35 40 00       	mov    $0x4035d8,%edi
  401fd4:	e8 07 ed ff ff       	callq  400ce0 <puts@plt>
  401fd9:	bf 57 34 40 00       	mov    $0x403457,%edi
  401fde:	e8 fd ec ff ff       	callq  400ce0 <puts@plt>
  401fe3:	be 00 00 00 00       	mov    $0x0,%esi
  401fe8:	bf 00 00 00 00       	mov    $0x0,%edi
  401fed:	e8 80 fc ff ff       	callq  401c72 <notify_server>
  401ff2:	bf 01 00 00 00       	mov    $0x1,%edi
  401ff7:	e8 74 ee ff ff       	callq  400e70 <exit@plt>

0000000000401ffc <illegalhandler>:
  401ffc:	48 83 ec 08          	sub    $0x8,%rsp
  402000:	83 3d 21 35 20 00 00 	cmpl   $0x0,0x203521(%rip)        # 605528 <is_checker>
  402007:	74 14                	je     40201d <illegalhandler+0x21>
  402009:	bf 80 34 40 00       	mov    $0x403480,%edi
  40200e:	e8 cd ec ff ff       	callq  400ce0 <puts@plt>
  402013:	b8 00 00 00 00       	mov    $0x0,%eax
  402018:	e8 ce fb ff ff       	callq  401beb <check_fail>
  40201d:	bf 00 36 40 00       	mov    $0x403600,%edi
  402022:	e8 b9 ec ff ff       	callq  400ce0 <puts@plt>
  402027:	bf 57 34 40 00       	mov    $0x403457,%edi
  40202c:	e8 af ec ff ff       	callq  400ce0 <puts@plt>
  402031:	be 00 00 00 00       	mov    $0x0,%esi
  402036:	bf 00 00 00 00       	mov    $0x0,%edi
  40203b:	e8 32 fc ff ff       	callq  401c72 <notify_server>
  402040:	bf 01 00 00 00       	mov    $0x1,%edi
  402045:	e8 26 ee ff ff       	callq  400e70 <exit@plt>

000000000040204a <sigalrmhandler>:
  40204a:	48 83 ec 08          	sub    $0x8,%rsp
  40204e:	83 3d d3 34 20 00 00 	cmpl   $0x0,0x2034d3(%rip)        # 605528 <is_checker>
  402055:	74 14                	je     40206b <sigalrmhandler+0x21>
  402057:	bf 94 34 40 00       	mov    $0x403494,%edi
  40205c:	e8 7f ec ff ff       	callq  400ce0 <puts@plt>
  402061:	b8 00 00 00 00       	mov    $0x0,%eax
  402066:	e8 80 fb ff ff       	callq  401beb <check_fail>
  40206b:	ba 05 00 00 00       	mov    $0x5,%edx
  402070:	be 30 36 40 00       	mov    $0x403630,%esi
  402075:	bf 01 00 00 00       	mov    $0x1,%edi
  40207a:	b8 00 00 00 00       	mov    $0x0,%eax
  40207f:	e8 9c ed ff ff       	callq  400e20 <__printf_chk@plt>
  402084:	be 00 00 00 00       	mov    $0x0,%esi
  402089:	bf 00 00 00 00       	mov    $0x0,%edi
  40208e:	e8 df fb ff ff       	callq  401c72 <notify_server>
  402093:	bf 01 00 00 00       	mov    $0x1,%edi
  402098:	e8 d3 ed ff ff       	callq  400e70 <exit@plt>

000000000040209d <launch>:
  40209d:	55                   	push   %rbp
  40209e:	48 89 e5             	mov    %rsp,%rbp
  4020a1:	48 83 ec 10          	sub    $0x10,%rsp
  4020a5:	48 89 fa             	mov    %rdi,%rdx
  4020a8:	64 48 8b 04 25 28 00 	mov    %fs:0x28,%rax
  4020af:	00 00 
  4020b1:	48 89 45 f8          	mov    %rax,-0x8(%rbp)
  4020b5:	31 c0                	xor    %eax,%eax
  4020b7:	48 8d 47 1e          	lea    0x1e(%rdi),%rax
  4020bb:	48 83 e0 f0          	and    $0xfffffffffffffff0,%rax
  4020bf:	48 29 c4             	sub    %rax,%rsp
  4020c2:	48 8d 7c 24 0f       	lea    0xf(%rsp),%rdi
  4020c7:	48 83 e7 f0          	and    $0xfffffffffffffff0,%rdi
  4020cb:	be f4 00 00 00       	mov    $0xf4,%esi
  4020d0:	e8 4b ec ff ff       	callq  400d20 <memset@plt>
  4020d5:	48 8b 05 e4 33 20 00 	mov    0x2033e4(%rip),%rax        # 6054c0 <stdin@@GLIBC_2.2.5>
  4020dc:	48 39 05 2d 34 20 00 	cmp    %rax,0x20342d(%rip)        # 605510 <infile>
  4020e3:	75 14                	jne    4020f9 <launch+0x5c>
  4020e5:	be 9c 34 40 00       	mov    $0x40349c,%esi
  4020ea:	bf 01 00 00 00       	mov    $0x1,%edi
  4020ef:	b8 00 00 00 00       	mov    $0x0,%eax
  4020f4:	e8 27 ed ff ff       	callq  400e20 <__printf_chk@plt>
  4020f9:	c7 05 19 34 20 00 00 	movl   $0x0,0x203419(%rip)        # 60551c <vlevel>
  402100:	00 00 00 
  402103:	b8 00 00 00 00       	mov    $0x0,%eax
  402108:	e8 1e f9 ff ff       	callq  401a2b <test>
  40210d:	83 3d 14 34 20 00 00 	cmpl   $0x0,0x203414(%rip)        # 605528 <is_checker>
  402114:	74 14                	je     40212a <launch+0x8d>
  402116:	bf a9 34 40 00       	mov    $0x4034a9,%edi
  40211b:	e8 c0 eb ff ff       	callq  400ce0 <puts@plt>
  402120:	b8 00 00 00 00       	mov    $0x0,%eax
  402125:	e8 c1 fa ff ff       	callq  401beb <check_fail>
  40212a:	bf b4 34 40 00       	mov    $0x4034b4,%edi
  40212f:	e8 ac eb ff ff       	callq  400ce0 <puts@plt>
  402134:	48 8b 45 f8          	mov    -0x8(%rbp),%rax
  402138:	64 48 33 04 25 28 00 	xor    %fs:0x28,%rax
  40213f:	00 00 
  402141:	74 05                	je     402148 <launch+0xab>
  402143:	e8 b8 eb ff ff       	callq  400d00 <__stack_chk_fail@plt>
  402148:	c9                   	leaveq 
  402149:	c3                   	retq   

000000000040214a <stable_launch>:
  40214a:	53                   	push   %rbx
  40214b:	48 89 3d b6 33 20 00 	mov    %rdi,0x2033b6(%rip)        # 605508 <global_offset>
  402152:	41 b9 00 00 00 00    	mov    $0x0,%r9d
  402158:	41 b8 00 00 00 00    	mov    $0x0,%r8d
  40215e:	b9 32 01 00 00       	mov    $0x132,%ecx
  402163:	ba 07 00 00 00       	mov    $0x7,%edx
  402168:	be 00 00 10 00       	mov    $0x100000,%esi
  40216d:	bf 00 60 58 55       	mov    $0x55586000,%edi
  402172:	e8 99 eb ff ff       	callq  400d10 <mmap@plt>
  402177:	48 89 c3             	mov    %rax,%rbx
  40217a:	48 3d 00 60 58 55    	cmp    $0x55586000,%rax
  402180:	74 37                	je     4021b9 <stable_launch+0x6f>
  402182:	be 00 00 10 00       	mov    $0x100000,%esi
  402187:	48 89 c7             	mov    %rax,%rdi
  40218a:	e8 81 ec ff ff       	callq  400e10 <munmap@plt>
  40218f:	b9 00 60 58 55       	mov    $0x55586000,%ecx
  402194:	ba 68 36 40 00       	mov    $0x403668,%edx
  402199:	be 01 00 00 00       	mov    $0x1,%esi
  40219e:	48 8b 3d 43 33 20 00 	mov    0x203343(%rip),%rdi        # 6054e8 <stderr@@GLIBC_2.2.5>
  4021a5:	b8 00 00 00 00       	mov    $0x0,%eax
  4021aa:	e8 e1 ec ff ff       	callq  400e90 <__fprintf_chk@plt>
  4021af:	bf 01 00 00 00       	mov    $0x1,%edi
  4021b4:	e8 b7 ec ff ff       	callq  400e70 <exit@plt>
  4021b9:	48 8d 90 f8 ff 0f 00 	lea    0xffff8(%rax),%rdx
  4021c0:	48 89 15 89 3f 20 00 	mov    %rdx,0x203f89(%rip)        # 606150 <stack_top>
  4021c7:	48 89 e0             	mov    %rsp,%rax
  4021ca:	48 89 d4             	mov    %rdx,%rsp
  4021cd:	48 89 c2             	mov    %rax,%rdx
  4021d0:	48 89 15 29 33 20 00 	mov    %rdx,0x203329(%rip)        # 605500 <global_save_stack>
  4021d7:	48 8b 3d 2a 33 20 00 	mov    0x20332a(%rip),%rdi        # 605508 <global_offset>
  4021de:	e8 ba fe ff ff       	callq  40209d <launch>
  4021e3:	48 8b 05 16 33 20 00 	mov    0x203316(%rip),%rax        # 605500 <global_save_stack>
  4021ea:	48 89 c4             	mov    %rax,%rsp
  4021ed:	be 00 00 10 00       	mov    $0x100000,%esi
  4021f2:	48 89 df             	mov    %rbx,%rdi
  4021f5:	e8 16 ec ff ff       	callq  400e10 <munmap@plt>
  4021fa:	5b                   	pop    %rbx
  4021fb:	c3                   	retq   
  4021fc:	0f 1f 40 00          	nopl   0x0(%rax)

0000000000402200 <rio_readinitb>:
  402200:	89 37                	mov    %esi,(%rdi)
  402202:	c7 47 04 00 00 00 00 	movl   $0x0,0x4(%rdi)
  402209:	48 8d 47 10          	lea    0x10(%rdi),%rax
  40220d:	48 89 47 08          	mov    %rax,0x8(%rdi)
  402211:	c3                   	retq   

0000000000402212 <sigalrm_handler>:
  402212:	48 83 ec 08          	sub    $0x8,%rsp
  402216:	b9 00 00 00 00       	mov    $0x0,%ecx
  40221b:	ba a0 36 40 00       	mov    $0x4036a0,%edx
  402220:	be 01 00 00 00       	mov    $0x1,%esi
  402225:	48 8b 3d bc 32 20 00 	mov    0x2032bc(%rip),%rdi        # 6054e8 <stderr@@GLIBC_2.2.5>
  40222c:	b8 00 00 00 00       	mov    $0x0,%eax
  402231:	e8 5a ec ff ff       	callq  400e90 <__fprintf_chk@plt>
  402236:	bf 01 00 00 00       	mov    $0x1,%edi
  40223b:	e8 30 ec ff ff       	callq  400e70 <exit@plt>

0000000000402240 <rio_writen>:
  402240:	41 55                	push   %r13
  402242:	41 54                	push   %r12
  402244:	55                   	push   %rbp
  402245:	53                   	push   %rbx
  402246:	48 83 ec 08          	sub    $0x8,%rsp
  40224a:	41 89 fc             	mov    %edi,%r12d
  40224d:	48 89 f5             	mov    %rsi,%rbp
  402250:	49 89 d5             	mov    %rdx,%r13
  402253:	48 89 d3             	mov    %rdx,%rbx
  402256:	eb 28                	jmp    402280 <rio_writen+0x40>
  402258:	48 89 da             	mov    %rbx,%rdx
  40225b:	48 89 ee             	mov    %rbp,%rsi
  40225e:	44 89 e7             	mov    %r12d,%edi
  402261:	e8 8a ea ff ff       	callq  400cf0 <write@plt>
  402266:	48 85 c0             	test   %rax,%rax
  402269:	7f 0f                	jg     40227a <rio_writen+0x3a>
  40226b:	e8 30 ea ff ff       	callq  400ca0 <__errno_location@plt>
  402270:	83 38 04             	cmpl   $0x4,(%rax)
  402273:	75 15                	jne    40228a <rio_writen+0x4a>
  402275:	b8 00 00 00 00       	mov    $0x0,%eax
  40227a:	48 29 c3             	sub    %rax,%rbx
  40227d:	48 01 c5             	add    %rax,%rbp
  402280:	48 85 db             	test   %rbx,%rbx
  402283:	75 d3                	jne    402258 <rio_writen+0x18>
  402285:	4c 89 e8             	mov    %r13,%rax
  402288:	eb 07                	jmp    402291 <rio_writen+0x51>
  40228a:	48 c7 c0 ff ff ff ff 	mov    $0xffffffffffffffff,%rax
  402291:	48 83 c4 08          	add    $0x8,%rsp
  402295:	5b                   	pop    %rbx
  402296:	5d                   	pop    %rbp
  402297:	41 5c                	pop    %r12
  402299:	41 5d                	pop    %r13
  40229b:	c3                   	retq   

000000000040229c <rio_read>:
  40229c:	41 56                	push   %r14
  40229e:	41 55                	push   %r13
  4022a0:	41 54                	push   %r12
  4022a2:	55                   	push   %rbp
  4022a3:	53                   	push   %rbx
  4022a4:	48 89 fb             	mov    %rdi,%rbx
  4022a7:	49 89 f6             	mov    %rsi,%r14
  4022aa:	49 89 d5             	mov    %rdx,%r13
  4022ad:	4c 8d 67 10          	lea    0x10(%rdi),%r12
  4022b1:	eb 2a                	jmp    4022dd <rio_read+0x41>
  4022b3:	8b 3b                	mov    (%rbx),%edi
  4022b5:	ba 00 20 00 00       	mov    $0x2000,%edx
  4022ba:	4c 89 e6             	mov    %r12,%rsi
  4022bd:	e8 8e ea ff ff       	callq  400d50 <read@plt>
  4022c2:	89 43 04             	mov    %eax,0x4(%rbx)
  4022c5:	85 c0                	test   %eax,%eax
  4022c7:	79 0c                	jns    4022d5 <rio_read+0x39>
  4022c9:	e8 d2 e9 ff ff       	callq  400ca0 <__errno_location@plt>
  4022ce:	83 38 04             	cmpl   $0x4,(%rax)
  4022d1:	74 0a                	je     4022dd <rio_read+0x41>
  4022d3:	eb 37                	jmp    40230c <rio_read+0x70>
  4022d5:	85 c0                	test   %eax,%eax
  4022d7:	74 3c                	je     402315 <rio_read+0x79>
  4022d9:	4c 89 63 08          	mov    %r12,0x8(%rbx)
  4022dd:	8b 6b 04             	mov    0x4(%rbx),%ebp
  4022e0:	85 ed                	test   %ebp,%ebp
  4022e2:	7e cf                	jle    4022b3 <rio_read+0x17>
  4022e4:	89 e8                	mov    %ebp,%eax
  4022e6:	4c 39 e8             	cmp    %r13,%rax
  4022e9:	72 03                	jb     4022ee <rio_read+0x52>
  4022eb:	44 89 ed             	mov    %r13d,%ebp
  4022ee:	4c 63 e5             	movslq %ebp,%r12
  4022f1:	48 8b 73 08          	mov    0x8(%rbx),%rsi
  4022f5:	4c 89 e2             	mov    %r12,%rdx
  4022f8:	4c 89 f7             	mov    %r14,%rdi
  4022fb:	e8 c0 ea ff ff       	callq  400dc0 <memcpy@plt>
  402300:	4c 01 63 08          	add    %r12,0x8(%rbx)
  402304:	29 6b 04             	sub    %ebp,0x4(%rbx)
  402307:	4c 89 e0             	mov    %r12,%rax
  40230a:	eb 0e                	jmp    40231a <rio_read+0x7e>
  40230c:	48 c7 c0 ff ff ff ff 	mov    $0xffffffffffffffff,%rax
  402313:	eb 05                	jmp    40231a <rio_read+0x7e>
  402315:	b8 00 00 00 00       	mov    $0x0,%eax
  40231a:	5b                   	pop    %rbx
  40231b:	5d                   	pop    %rbp
  40231c:	41 5c                	pop    %r12
  40231e:	41 5d                	pop    %r13
  402320:	41 5e                	pop    %r14
  402322:	c3                   	retq   

0000000000402323 <rio_readlineb>:
  402323:	41 55                	push   %r13
  402325:	41 54                	push   %r12
  402327:	55                   	push   %rbp
  402328:	53                   	push   %rbx
  402329:	48 83 ec 18          	sub    $0x18,%rsp
  40232d:	49 89 fd             	mov    %rdi,%r13
  402330:	48 89 f5             	mov    %rsi,%rbp
  402333:	49 89 d4             	mov    %rdx,%r12
  402336:	bb 01 00 00 00       	mov    $0x1,%ebx
  40233b:	eb 3e                	jmp    40237b <rio_readlineb+0x58>
  40233d:	ba 01 00 00 00       	mov    $0x1,%edx
  402342:	48 8d 74 24 0f       	lea    0xf(%rsp),%rsi
  402347:	4c 89 ef             	mov    %r13,%rdi
  40234a:	e8 4d ff ff ff       	callq  40229c <rio_read>
  40234f:	83 f8 01             	cmp    $0x1,%eax
  402352:	75 12                	jne    402366 <rio_readlineb+0x43>
  402354:	48 8d 55 01          	lea    0x1(%rbp),%rdx
  402358:	0f b6 44 24 0f       	movzbl 0xf(%rsp),%eax
  40235d:	88 45 00             	mov    %al,0x0(%rbp)
  402360:	3c 0a                	cmp    $0xa,%al
  402362:	75 10                	jne    402374 <rio_readlineb+0x51>
  402364:	eb 1c                	jmp    402382 <rio_readlineb+0x5f>
  402366:	85 c0                	test   %eax,%eax
  402368:	75 24                	jne    40238e <rio_readlineb+0x6b>
  40236a:	48 83 fb 01          	cmp    $0x1,%rbx
  40236e:	66 90                	xchg   %ax,%ax
  402370:	75 13                	jne    402385 <rio_readlineb+0x62>
  402372:	eb 23                	jmp    402397 <rio_readlineb+0x74>
  402374:	48 83 c3 01          	add    $0x1,%rbx
  402378:	48 89 d5             	mov    %rdx,%rbp
  40237b:	4c 39 e3             	cmp    %r12,%rbx
  40237e:	72 bd                	jb     40233d <rio_readlineb+0x1a>
  402380:	eb 03                	jmp    402385 <rio_readlineb+0x62>
  402382:	48 89 d5             	mov    %rdx,%rbp
  402385:	c6 45 00 00          	movb   $0x0,0x0(%rbp)
  402389:	48 89 d8             	mov    %rbx,%rax
  40238c:	eb 0e                	jmp    40239c <rio_readlineb+0x79>
  40238e:	48 c7 c0 ff ff ff ff 	mov    $0xffffffffffffffff,%rax
  402395:	eb 05                	jmp    40239c <rio_readlineb+0x79>
  402397:	b8 00 00 00 00       	mov    $0x0,%eax
  40239c:	48 83 c4 18          	add    $0x18,%rsp
  4023a0:	5b                   	pop    %rbx
  4023a1:	5d                   	pop    %rbp
  4023a2:	41 5c                	pop    %r12
  4023a4:	41 5d                	pop    %r13
  4023a6:	c3                   	retq   

00000000004023a7 <urlencode>:
  4023a7:	41 54                	push   %r12
  4023a9:	55                   	push   %rbp
  4023aa:	53                   	push   %rbx
  4023ab:	48 83 ec 10          	sub    $0x10,%rsp
  4023af:	48 89 fb             	mov    %rdi,%rbx
  4023b2:	48 89 f5             	mov    %rsi,%rbp
  4023b5:	64 48 8b 04 25 28 00 	mov    %fs:0x28,%rax
  4023bc:	00 00 
  4023be:	48 89 44 24 08       	mov    %rax,0x8(%rsp)
  4023c3:	31 c0                	xor    %eax,%eax
  4023c5:	48 c7 c1 ff ff ff ff 	mov    $0xffffffffffffffff,%rcx
  4023cc:	f2 ae                	repnz scas %es:(%rdi),%al
  4023ce:	48 f7 d1             	not    %rcx
  4023d1:	8d 41 ff             	lea    -0x1(%rcx),%eax
  4023d4:	e9 aa 00 00 00       	jmpq   402483 <urlencode+0xdc>
  4023d9:	44 0f b6 03          	movzbl (%rbx),%r8d
  4023dd:	41 80 f8 2a          	cmp    $0x2a,%r8b
  4023e1:	0f 94 c2             	sete   %dl
  4023e4:	41 80 f8 2d          	cmp    $0x2d,%r8b
  4023e8:	0f 94 c0             	sete   %al
  4023eb:	08 c2                	or     %al,%dl
  4023ed:	75 24                	jne    402413 <urlencode+0x6c>
  4023ef:	41 80 f8 2e          	cmp    $0x2e,%r8b
  4023f3:	74 1e                	je     402413 <urlencode+0x6c>
  4023f5:	41 80 f8 5f          	cmp    $0x5f,%r8b
  4023f9:	74 18                	je     402413 <urlencode+0x6c>
  4023fb:	41 8d 40 d0          	lea    -0x30(%r8),%eax
  4023ff:	3c 09                	cmp    $0x9,%al
  402401:	76 10                	jbe    402413 <urlencode+0x6c>
  402403:	41 8d 40 bf          	lea    -0x41(%r8),%eax
  402407:	3c 19                	cmp    $0x19,%al
  402409:	76 08                	jbe    402413 <urlencode+0x6c>
  40240b:	41 8d 40 9f          	lea    -0x61(%r8),%eax
  40240f:	3c 19                	cmp    $0x19,%al
  402411:	77 0a                	ja     40241d <urlencode+0x76>
  402413:	44 88 45 00          	mov    %r8b,0x0(%rbp)
  402417:	48 8d 6d 01          	lea    0x1(%rbp),%rbp
  40241b:	eb 5f                	jmp    40247c <urlencode+0xd5>
  40241d:	41 80 f8 20          	cmp    $0x20,%r8b
  402421:	75 0a                	jne    40242d <urlencode+0x86>
  402423:	c6 45 00 2b          	movb   $0x2b,0x0(%rbp)
  402427:	48 8d 6d 01          	lea    0x1(%rbp),%rbp
  40242b:	eb 4f                	jmp    40247c <urlencode+0xd5>
  40242d:	41 8d 40 e0          	lea    -0x20(%r8),%eax
  402431:	3c 5f                	cmp    $0x5f,%al
  402433:	0f 96 c2             	setbe  %dl
  402436:	41 80 f8 09          	cmp    $0x9,%r8b
  40243a:	0f 94 c0             	sete   %al
  40243d:	08 c2                	or     %al,%dl
  40243f:	74 50                	je     402491 <urlencode+0xea>
  402441:	45 0f b6 c0          	movzbl %r8b,%r8d
  402445:	b9 38 37 40 00       	mov    $0x403738,%ecx
  40244a:	ba 08 00 00 00       	mov    $0x8,%edx
  40244f:	be 01 00 00 00       	mov    $0x1,%esi
  402454:	48 89 e7             	mov    %rsp,%rdi
  402457:	b8 00 00 00 00       	mov    $0x0,%eax
  40245c:	e8 3f ea ff ff       	callq  400ea0 <__sprintf_chk@plt>
  402461:	0f b6 04 24          	movzbl (%rsp),%eax
  402465:	88 45 00             	mov    %al,0x0(%rbp)
  402468:	0f b6 44 24 01       	movzbl 0x1(%rsp),%eax
  40246d:	88 45 01             	mov    %al,0x1(%rbp)
  402470:	0f b6 44 24 02       	movzbl 0x2(%rsp),%eax
  402475:	88 45 02             	mov    %al,0x2(%rbp)
  402478:	48 8d 6d 03          	lea    0x3(%rbp),%rbp
  40247c:	48 83 c3 01          	add    $0x1,%rbx
  402480:	44 89 e0             	mov    %r12d,%eax
  402483:	44 8d 60 ff          	lea    -0x1(%rax),%r12d
  402487:	85 c0                	test   %eax,%eax
  402489:	0f 85 4a ff ff ff    	jne    4023d9 <urlencode+0x32>
  40248f:	eb 05                	jmp    402496 <urlencode+0xef>
  402491:	b8 ff ff ff ff       	mov    $0xffffffff,%eax
  402496:	48 8b 74 24 08       	mov    0x8(%rsp),%rsi
  40249b:	64 48 33 34 25 28 00 	xor    %fs:0x28,%rsi
  4024a2:	00 00 
  4024a4:	74 05                	je     4024ab <urlencode+0x104>
  4024a6:	e8 55 e8 ff ff       	callq  400d00 <__stack_chk_fail@plt>
  4024ab:	48 83 c4 10          	add    $0x10,%rsp
  4024af:	5b                   	pop    %rbx
  4024b0:	5d                   	pop    %rbp
  4024b1:	41 5c                	pop    %r12
  4024b3:	c3                   	retq   

00000000004024b4 <submitr>:
  4024b4:	41 57                	push   %r15
  4024b6:	41 56                	push   %r14
  4024b8:	41 55                	push   %r13
  4024ba:	41 54                	push   %r12
  4024bc:	55                   	push   %rbp
  4024bd:	53                   	push   %rbx
  4024be:	48 81 ec 68 a0 00 00 	sub    $0xa068,%rsp
  4024c5:	49 89 fc             	mov    %rdi,%r12
  4024c8:	89 74 24 14          	mov    %esi,0x14(%rsp)
  4024cc:	49 89 d7             	mov    %rdx,%r15
  4024cf:	49 89 ce             	mov    %rcx,%r14
  4024d2:	4c 89 44 24 18       	mov    %r8,0x18(%rsp)
  4024d7:	4d 89 cd             	mov    %r9,%r13
  4024da:	48 8b 9c 24 a0 a0 00 	mov    0xa0a0(%rsp),%rbx
  4024e1:	00 
  4024e2:	64 48 8b 04 25 28 00 	mov    %fs:0x28,%rax
  4024e9:	00 00 
  4024eb:	48 89 84 24 58 a0 00 	mov    %rax,0xa058(%rsp)
  4024f2:	00 
  4024f3:	31 c0                	xor    %eax,%eax
  4024f5:	c7 44 24 2c 00 00 00 	movl   $0x0,0x2c(%rsp)
  4024fc:	00 
  4024fd:	ba 00 00 00 00       	mov    $0x0,%edx
  402502:	be 01 00 00 00       	mov    $0x1,%esi
  402507:	bf 02 00 00 00       	mov    $0x2,%edi
  40250c:	e8 9f e9 ff ff       	callq  400eb0 <socket@plt>
  402511:	89 c5                	mov    %eax,%ebp
  402513:	85 c0                	test   %eax,%eax
  402515:	79 4e                	jns    402565 <submitr+0xb1>
  402517:	48 b8 45 72 72 6f 72 	movabs $0x43203a726f727245,%rax
  40251e:	3a 20 43 
  402521:	48 89 03             	mov    %rax,(%rbx)
  402524:	48 b8 6c 69 65 6e 74 	movabs $0x6e7520746e65696c,%rax
  40252b:	20 75 6e 
  40252e:	48 89 43 08          	mov    %rax,0x8(%rbx)
  402532:	48 b8 61 62 6c 65 20 	movabs $0x206f7420656c6261,%rax
  402539:	74 6f 20 
  40253c:	48 89 43 10          	mov    %rax,0x10(%rbx)
  402540:	48 b8 63 72 65 61 74 	movabs $0x7320657461657263,%rax
  402547:	65 20 73 
  40254a:	48 89 43 18          	mov    %rax,0x18(%rbx)
  40254e:	c7 43 20 6f 63 6b 65 	movl   $0x656b636f,0x20(%rbx)
  402555:	66 c7 43 24 74 00    	movw   $0x74,0x24(%rbx)
  40255b:	b8 ff ff ff ff       	mov    $0xffffffff,%eax
  402560:	e9 84 06 00 00       	jmpq   402be9 <submitr+0x735>
  402565:	4c 89 e7             	mov    %r12,%rdi
  402568:	e8 13 e8 ff ff       	callq  400d80 <gethostbyname@plt>
  40256d:	48 85 c0             	test   %rax,%rax
  402570:	75 67                	jne    4025d9 <submitr+0x125>
  402572:	48 b8 45 72 72 6f 72 	movabs $0x44203a726f727245,%rax
  402579:	3a 20 44 
  40257c:	48 89 03             	mov    %rax,(%rbx)
  40257f:	48 b8 4e 53 20 69 73 	movabs $0x6e7520736920534e,%rax
  402586:	20 75 6e 
  402589:	48 89 43 08          	mov    %rax,0x8(%rbx)
  40258d:	48 b8 61 62 6c 65 20 	movabs $0x206f7420656c6261,%rax
  402594:	74 6f 20 
  402597:	48 89 43 10          	mov    %rax,0x10(%rbx)
  40259b:	48 b8 72 65 73 6f 6c 	movabs $0x2065766c6f736572,%rax
  4025a2:	76 65 20 
  4025a5:	48 89 43 18          	mov    %rax,0x18(%rbx)
  4025a9:	48 b8 73 65 72 76 65 	movabs $0x6120726576726573,%rax
  4025b0:	72 20 61 
  4025b3:	48 89 43 20          	mov    %rax,0x20(%rbx)
  4025b7:	c7 43 28 64 64 72 65 	movl   $0x65726464,0x28(%rbx)
  4025be:	66 c7 43 2c 73 73    	movw   $0x7373,0x2c(%rbx)
  4025c4:	c6 43 2e 00          	movb   $0x0,0x2e(%rbx)
  4025c8:	89 ef                	mov    %ebp,%edi
  4025ca:	e8 71 e7 ff ff       	callq  400d40 <close@plt>
  4025cf:	b8 ff ff ff ff       	mov    $0xffffffff,%eax
  4025d4:	e9 10 06 00 00       	jmpq   402be9 <submitr+0x735>
  4025d9:	48 c7 44 24 30 00 00 	movq   $0x0,0x30(%rsp)
  4025e0:	00 00 
  4025e2:	48 c7 44 24 38 00 00 	movq   $0x0,0x38(%rsp)
  4025e9:	00 00 
  4025eb:	66 c7 44 24 30 02 00 	movw   $0x2,0x30(%rsp)
  4025f2:	48 63 50 14          	movslq 0x14(%rax),%rdx
  4025f6:	48 8b 40 18          	mov    0x18(%rax),%rax
  4025fa:	48 8b 30             	mov    (%rax),%rsi
  4025fd:	48 8d 7c 24 34       	lea    0x34(%rsp),%rdi
  402602:	b9 0c 00 00 00       	mov    $0xc,%ecx
  402607:	e8 84 e7 ff ff       	callq  400d90 <__memmove_chk@plt>
  40260c:	0f b7 44 24 14       	movzwl 0x14(%rsp),%eax
  402611:	66 c1 c8 08          	ror    $0x8,%ax
  402615:	66 89 44 24 32       	mov    %ax,0x32(%rsp)
  40261a:	ba 10 00 00 00       	mov    $0x10,%edx
  40261f:	48 8d 74 24 30       	lea    0x30(%rsp),%rsi
  402624:	89 ef                	mov    %ebp,%edi
  402626:	e8 55 e8 ff ff       	callq  400e80 <connect@plt>
  40262b:	85 c0                	test   %eax,%eax
  40262d:	79 59                	jns    402688 <submitr+0x1d4>
  40262f:	48 b8 45 72 72 6f 72 	movabs $0x55203a726f727245,%rax
  402636:	3a 20 55 
  402639:	48 89 03             	mov    %rax,(%rbx)
  40263c:	48 b8 6e 61 62 6c 65 	movabs $0x6f7420656c62616e,%rax
  402643:	20 74 6f 
  402646:	48 89 43 08          	mov    %rax,0x8(%rbx)
  40264a:	48 b8 20 63 6f 6e 6e 	movabs $0x7463656e6e6f6320,%rax
  402651:	65 63 74 
  402654:	48 89 43 10          	mov    %rax,0x10(%rbx)
  402658:	48 b8 20 74 6f 20 74 	movabs $0x20656874206f7420,%rax
  40265f:	68 65 20 
  402662:	48 89 43 18          	mov    %rax,0x18(%rbx)
  402666:	c7 43 20 73 65 72 76 	movl   $0x76726573,0x20(%rbx)
  40266d:	66 c7 43 24 65 72    	movw   $0x7265,0x24(%rbx)
  402673:	c6 43 26 00          	movb   $0x0,0x26(%rbx)
  402677:	89 ef                	mov    %ebp,%edi
  402679:	e8 c2 e6 ff ff       	callq  400d40 <close@plt>
  40267e:	b8 ff ff ff ff       	mov    $0xffffffff,%eax
  402683:	e9 61 05 00 00       	jmpq   402be9 <submitr+0x735>
  402688:	48 c7 c2 ff ff ff ff 	mov    $0xffffffffffffffff,%rdx
  40268f:	4c 89 ef             	mov    %r13,%rdi
  402692:	b8 00 00 00 00       	mov    $0x0,%eax
  402697:	48 89 d1             	mov    %rdx,%rcx
  40269a:	f2 ae                	repnz scas %es:(%rdi),%al
  40269c:	48 f7 d1             	not    %rcx
  40269f:	48 89 ce             	mov    %rcx,%rsi
  4026a2:	4c 89 ff             	mov    %r15,%rdi
  4026a5:	48 89 d1             	mov    %rdx,%rcx
  4026a8:	f2 ae                	repnz scas %es:(%rdi),%al
  4026aa:	48 f7 d1             	not    %rcx
  4026ad:	49 89 c8             	mov    %rcx,%r8
  4026b0:	4c 89 f7             	mov    %r14,%rdi
  4026b3:	48 89 d1             	mov    %rdx,%rcx
  4026b6:	f2 ae                	repnz scas %es:(%rdi),%al
  4026b8:	49 29 c8             	sub    %rcx,%r8
  4026bb:	48 8b 7c 24 18       	mov    0x18(%rsp),%rdi
  4026c0:	48 89 d1             	mov    %rdx,%rcx
  4026c3:	f2 ae                	repnz scas %es:(%rdi),%al
  4026c5:	49 29 c8             	sub    %rcx,%r8
  4026c8:	48 8d 44 76 fd       	lea    -0x3(%rsi,%rsi,2),%rax
  4026cd:	49 8d 44 00 7b       	lea    0x7b(%r8,%rax,1),%rax
  4026d2:	48 3d 00 20 00 00    	cmp    $0x2000,%rax
  4026d8:	76 72                	jbe    40274c <submitr+0x298>
  4026da:	48 b8 45 72 72 6f 72 	movabs $0x52203a726f727245,%rax
  4026e1:	3a 20 52 
  4026e4:	48 89 03             	mov    %rax,(%rbx)
  4026e7:	48 b8 65 73 75 6c 74 	movabs $0x747320746c757365,%rax
  4026ee:	20 73 74 
  4026f1:	48 89 43 08          	mov    %rax,0x8(%rbx)
  4026f5:	48 b8 72 69 6e 67 20 	movabs $0x6f6f7420676e6972,%rax
  4026fc:	74 6f 6f 
  4026ff:	48 89 43 10          	mov    %rax,0x10(%rbx)
  402703:	48 b8 20 6c 61 72 67 	movabs $0x202e656772616c20,%rax
  40270a:	65 2e 20 
  40270d:	48 89 43 18          	mov    %rax,0x18(%rbx)
  402711:	48 b8 49 6e 63 72 65 	movabs $0x6573616572636e49,%rax
  402718:	61 73 65 
  40271b:	48 89 43 20          	mov    %rax,0x20(%rbx)
  40271f:	48 b8 20 53 55 42 4d 	movabs $0x5254494d42555320,%rax
  402726:	49 54 52 
  402729:	48 89 43 28          	mov    %rax,0x28(%rbx)
  40272d:	48 b8 5f 4d 41 58 42 	movabs $0x46554258414d5f,%rax
  402734:	55 46 00 
  402737:	48 89 43 30          	mov    %rax,0x30(%rbx)
  40273b:	89 ef                	mov    %ebp,%edi
  40273d:	e8 fe e5 ff ff       	callq  400d40 <close@plt>
  402742:	b8 ff ff ff ff       	mov    $0xffffffff,%eax
  402747:	e9 9d 04 00 00       	jmpq   402be9 <submitr+0x735>
  40274c:	48 8d b4 24 40 20 00 	lea    0x2040(%rsp),%rsi
  402753:	00 
  402754:	b9 00 04 00 00       	mov    $0x400,%ecx
  402759:	b8 00 00 00 00       	mov    $0x0,%eax
  40275e:	48 89 f7             	mov    %rsi,%rdi
  402761:	f3 48 ab             	rep stos %rax,%es:(%rdi)
  402764:	4c 89 ef             	mov    %r13,%rdi
  402767:	e8 3b fc ff ff       	callq  4023a7 <urlencode>
  40276c:	85 c0                	test   %eax,%eax
  40276e:	0f 89 8a 00 00 00    	jns    4027fe <submitr+0x34a>
  402774:	48 b8 45 72 72 6f 72 	movabs $0x52203a726f727245,%rax
  40277b:	3a 20 52 
  40277e:	48 89 03             	mov    %rax,(%rbx)
  402781:	48 b8 65 73 75 6c 74 	movabs $0x747320746c757365,%rax
  402788:	20 73 74 
  40278b:	48 89 43 08          	mov    %rax,0x8(%rbx)
  40278f:	48 b8 72 69 6e 67 20 	movabs $0x6e6f6320676e6972,%rax
  402796:	63 6f 6e 
  402799:	48 89 43 10          	mov    %rax,0x10(%rbx)
  40279d:	48 b8 74 61 69 6e 73 	movabs $0x6e6120736e696174,%rax
  4027a4:	20 61 6e 
  4027a7:	48 89 43 18          	mov    %rax,0x18(%rbx)
  4027ab:	48 b8 20 69 6c 6c 65 	movabs $0x6c6167656c6c6920,%rax
  4027b2:	67 61 6c 
  4027b5:	48 89 43 20          	mov    %rax,0x20(%rbx)
  4027b9:	48 b8 20 6f 72 20 75 	movabs $0x72706e7520726f20,%rax
  4027c0:	6e 70 72 
  4027c3:	48 89 43 28          	mov    %rax,0x28(%rbx)
  4027c7:	48 b8 69 6e 74 61 62 	movabs $0x20656c6261746e69,%rax
  4027ce:	6c 65 20 
  4027d1:	48 89 43 30          	mov    %rax,0x30(%rbx)
  4027d5:	48 b8 63 68 61 72 61 	movabs $0x6574636172616863,%rax
  4027dc:	63 74 65 
  4027df:	48 89 43 38          	mov    %rax,0x38(%rbx)
  4027e3:	66 c7 43 40 72 2e    	movw   $0x2e72,0x40(%rbx)
  4027e9:	c6 43 42 00          	movb   $0x0,0x42(%rbx)
  4027ed:	89 ef                	mov    %ebp,%edi
  4027ef:	e8 4c e5 ff ff       	callq  400d40 <close@plt>
  4027f4:	b8 ff ff ff ff       	mov    $0xffffffff,%eax
  4027f9:	e9 eb 03 00 00       	jmpq   402be9 <submitr+0x735>
  4027fe:	4c 89 64 24 08       	mov    %r12,0x8(%rsp)
  402803:	48 8d 84 24 40 20 00 	lea    0x2040(%rsp),%rax
  40280a:	00 
  40280b:	48 89 04 24          	mov    %rax,(%rsp)
  40280f:	4d 89 f9             	mov    %r15,%r9
  402812:	4d 89 f0             	mov    %r14,%r8
  402815:	b9 c8 36 40 00       	mov    $0x4036c8,%ecx
  40281a:	ba 00 20 00 00       	mov    $0x2000,%edx
  40281f:	be 01 00 00 00       	mov    $0x1,%esi
  402824:	48 8d 7c 24 40       	lea    0x40(%rsp),%rdi
  402829:	b8 00 00 00 00       	mov    $0x0,%eax
  40282e:	e8 6d e6 ff ff       	callq  400ea0 <__sprintf_chk@plt>
  402833:	48 8d 7c 24 40       	lea    0x40(%rsp),%rdi
  402838:	b8 00 00 00 00       	mov    $0x0,%eax
  40283d:	48 c7 c1 ff ff ff ff 	mov    $0xffffffffffffffff,%rcx
  402844:	f2 ae                	repnz scas %es:(%rdi),%al
  402846:	48 f7 d1             	not    %rcx
  402849:	48 8d 51 ff          	lea    -0x1(%rcx),%rdx
  40284d:	48 8d 74 24 40       	lea    0x40(%rsp),%rsi
  402852:	89 ef                	mov    %ebp,%edi
  402854:	e8 e7 f9 ff ff       	callq  402240 <rio_writen>
  402859:	48 85 c0             	test   %rax,%rax
  40285c:	79 6e                	jns    4028cc <submitr+0x418>
  40285e:	48 b8 45 72 72 6f 72 	movabs $0x43203a726f727245,%rax
  402865:	3a 20 43 
  402868:	48 89 03             	mov    %rax,(%rbx)
  40286b:	48 b8 6c 69 65 6e 74 	movabs $0x6e7520746e65696c,%rax
  402872:	20 75 6e 
  402875:	48 89 43 08          	mov    %rax,0x8(%rbx)
  402879:	48 b8 61 62 6c 65 20 	movabs $0x206f7420656c6261,%rax
  402880:	74 6f 20 
  402883:	48 89 43 10          	mov    %rax,0x10(%rbx)
  402887:	48 b8 77 72 69 74 65 	movabs $0x6f74206574697277,%rax
  40288e:	20 74 6f 
  402891:	48 89 43 18          	mov    %rax,0x18(%rbx)
  402895:	48 b8 20 74 68 65 20 	movabs $0x7365722065687420,%rax
  40289c:	72 65 73 
  40289f:	48 89 43 20          	mov    %rax,0x20(%rbx)
  4028a3:	48 b8 75 6c 74 20 73 	movabs $0x7672657320746c75,%rax
  4028aa:	65 72 76 
  4028ad:	48 89 43 28          	mov    %rax,0x28(%rbx)
  4028b1:	66 c7 43 30 65 72    	movw   $0x7265,0x30(%rbx)
  4028b7:	c6 43 32 00          	movb   $0x0,0x32(%rbx)
  4028bb:	89 ef                	mov    %ebp,%edi
  4028bd:	e8 7e e4 ff ff       	callq  400d40 <close@plt>
  4028c2:	b8 ff ff ff ff       	mov    $0xffffffff,%eax
  4028c7:	e9 1d 03 00 00       	jmpq   402be9 <submitr+0x735>
  4028cc:	89 ee                	mov    %ebp,%esi
  4028ce:	48 8d bc 24 40 80 00 	lea    0x8040(%rsp),%rdi
  4028d5:	00 
  4028d6:	e8 25 f9 ff ff       	callq  402200 <rio_readinitb>
  4028db:	ba 00 20 00 00       	mov    $0x2000,%edx
  4028e0:	48 8d 74 24 40       	lea    0x40(%rsp),%rsi
  4028e5:	48 8d bc 24 40 80 00 	lea    0x8040(%rsp),%rdi
  4028ec:	00 
  4028ed:	e8 31 fa ff ff       	callq  402323 <rio_readlineb>
  4028f2:	48 85 c0             	test   %rax,%rax
  4028f5:	7f 7d                	jg     402974 <submitr+0x4c0>
  4028f7:	48 b8 45 72 72 6f 72 	movabs $0x43203a726f727245,%rax
  4028fe:	3a 20 43 
  402901:	48 89 03             	mov    %rax,(%rbx)
  402904:	48 b8 6c 69 65 6e 74 	movabs $0x6e7520746e65696c,%rax
  40290b:	20 75 6e 
  40290e:	48 89 43 08          	mov    %rax,0x8(%rbx)
  402912:	48 b8 61 62 6c 65 20 	movabs $0x206f7420656c6261,%rax
  402919:	74 6f 20 
  40291c:	48 89 43 10          	mov    %rax,0x10(%rbx)
  402920:	48 b8 72 65 61 64 20 	movabs $0x7269662064616572,%rax
  402927:	66 69 72 
  40292a:	48 89 43 18          	mov    %rax,0x18(%rbx)
  40292e:	48 b8 73 74 20 68 65 	movabs $0x6564616568207473,%rax
  402935:	61 64 65 
  402938:	48 89 43 20          	mov    %rax,0x20(%rbx)
  40293c:	48 b8 72 20 66 72 6f 	movabs $0x72206d6f72662072,%rax
  402943:	6d 20 72 
  402946:	48 89 43 28          	mov    %rax,0x28(%rbx)
  40294a:	48 b8 65 73 75 6c 74 	movabs $0x657320746c757365,%rax
  402951:	20 73 65 
  402954:	48 89 43 30          	mov    %rax,0x30(%rbx)
  402958:	c7 43 38 72 76 65 72 	movl   $0x72657672,0x38(%rbx)
  40295f:	c6 43 3c 00          	movb   $0x0,0x3c(%rbx)
  402963:	89 ef                	mov    %ebp,%edi
  402965:	e8 d6 e3 ff ff       	callq  400d40 <close@plt>
  40296a:	b8 ff ff ff ff       	mov    $0xffffffff,%eax
  40296f:	e9 75 02 00 00       	jmpq   402be9 <submitr+0x735>
  402974:	4c 8d 84 24 40 60 00 	lea    0x6040(%rsp),%r8
  40297b:	00 
  40297c:	48 8d 4c 24 2c       	lea    0x2c(%rsp),%rcx
  402981:	48 8d 94 24 40 40 00 	lea    0x4040(%rsp),%rdx
  402988:	00 
  402989:	be 3f 37 40 00       	mov    $0x40373f,%esi
  40298e:	48 8d 7c 24 40       	lea    0x40(%rsp),%rdi
  402993:	b8 00 00 00 00       	mov    $0x0,%eax
  402998:	e8 63 e4 ff ff       	callq  400e00 <__isoc99_sscanf@plt>
  40299d:	41 bc 0d 00 00 00    	mov    $0xd,%r12d
  4029a3:	41 bd 0a 00 00 00    	mov    $0xa,%r13d
  4029a9:	e9 95 00 00 00       	jmpq   402a43 <submitr+0x58f>
  4029ae:	ba 00 20 00 00       	mov    $0x2000,%edx
  4029b3:	48 8d 74 24 40       	lea    0x40(%rsp),%rsi
  4029b8:	48 8d bc 24 40 80 00 	lea    0x8040(%rsp),%rdi
  4029bf:	00 
  4029c0:	e8 5e f9 ff ff       	callq  402323 <rio_readlineb>
  4029c5:	48 85 c0             	test   %rax,%rax
  4029c8:	7f 79                	jg     402a43 <submitr+0x58f>
  4029ca:	48 b8 45 72 72 6f 72 	movabs $0x43203a726f727245,%rax
  4029d1:	3a 20 43 
  4029d4:	48 89 03             	mov    %rax,(%rbx)
  4029d7:	48 b8 6c 69 65 6e 74 	movabs $0x6e7520746e65696c,%rax
  4029de:	20 75 6e 
  4029e1:	48 89 43 08          	mov    %rax,0x8(%rbx)
  4029e5:	48 b8 61 62 6c 65 20 	movabs $0x206f7420656c6261,%rax
  4029ec:	74 6f 20 
  4029ef:	48 89 43 10          	mov    %rax,0x10(%rbx)
  4029f3:	48 b8 72 65 61 64 20 	movabs $0x6165682064616572,%rax
  4029fa:	68 65 61 
  4029fd:	48 89 43 18          	mov    %rax,0x18(%rbx)
  402a01:	48 b8 64 65 72 73 20 	movabs $0x6f72662073726564,%rax
  402a08:	66 72 6f 
  402a0b:	48 89 43 20          	mov    %rax,0x20(%rbx)
  402a0f:	48 b8 6d 20 74 68 65 	movabs $0x657220656874206d,%rax
  402a16:	20 72 65 
  402a19:	48 89 43 28          	mov    %rax,0x28(%rbx)
  402a1d:	48 b8 73 75 6c 74 20 	movabs $0x72657320746c7573,%rax
  402a24:	73 65 72 
  402a27:	48 89 43 30          	mov    %rax,0x30(%rbx)
  402a2b:	c7 43 38 76 65 72 00 	movl   $0x726576,0x38(%rbx)
  402a32:	89 ef                	mov    %ebp,%edi
  402a34:	e8 07 e3 ff ff       	callq  400d40 <close@plt>
  402a39:	b8 ff ff ff ff       	mov    $0xffffffff,%eax
  402a3e:	e9 a6 01 00 00       	jmpq   402be9 <submitr+0x735>
  402a43:	0f b6 44 24 40       	movzbl 0x40(%rsp),%eax
  402a48:	44 89 e6             	mov    %r12d,%esi
  402a4b:	29 c6                	sub    %eax,%esi
  402a4d:	89 f0                	mov    %esi,%eax
  402a4f:	75 15                	jne    402a66 <submitr+0x5b2>
  402a51:	0f b6 44 24 41       	movzbl 0x41(%rsp),%eax
  402a56:	44 89 ea             	mov    %r13d,%edx
  402a59:	29 c2                	sub    %eax,%edx
  402a5b:	89 d0                	mov    %edx,%eax
  402a5d:	75 07                	jne    402a66 <submitr+0x5b2>
  402a5f:	0f b6 44 24 42       	movzbl 0x42(%rsp),%eax
  402a64:	f7 d8                	neg    %eax
  402a66:	85 c0                	test   %eax,%eax
  402a68:	0f 85 40 ff ff ff    	jne    4029ae <submitr+0x4fa>
  402a6e:	ba 00 20 00 00       	mov    $0x2000,%edx
  402a73:	48 8d 74 24 40       	lea    0x40(%rsp),%rsi
  402a78:	48 8d bc 24 40 80 00 	lea    0x8040(%rsp),%rdi
  402a7f:	00 
  402a80:	e8 9e f8 ff ff       	callq  402323 <rio_readlineb>
  402a85:	48 85 c0             	test   %rax,%rax
  402a88:	0f 8f 83 00 00 00    	jg     402b11 <submitr+0x65d>
  402a8e:	48 b8 45 72 72 6f 72 	movabs $0x43203a726f727245,%rax
  402a95:	3a 20 43 
  402a98:	48 89 03             	mov    %rax,(%rbx)
  402a9b:	48 b8 6c 69 65 6e 74 	movabs $0x6e7520746e65696c,%rax
  402aa2:	20 75 6e 
  402aa5:	48 89 43 08          	mov    %rax,0x8(%rbx)
  402aa9:	48 b8 61 62 6c 65 20 	movabs $0x206f7420656c6261,%rax
  402ab0:	74 6f 20 
  402ab3:	48 89 43 10          	mov    %rax,0x10(%rbx)
  402ab7:	48 b8 72 65 61 64 20 	movabs $0x6174732064616572,%rax
  402abe:	73 74 61 
  402ac1:	48 89 43 18          	mov    %rax,0x18(%rbx)
  402ac5:	48 b8 74 75 73 20 6d 	movabs $0x7373656d20737574,%rax
  402acc:	65 73 73 
  402acf:	48 89 43 20          	mov    %rax,0x20(%rbx)
  402ad3:	48 b8 61 67 65 20 66 	movabs $0x6d6f726620656761,%rax
  402ada:	72 6f 6d 
  402add:	48 89 43 28          	mov    %rax,0x28(%rbx)
  402ae1:	48 b8 20 72 65 73 75 	movabs $0x20746c7573657220,%rax
  402ae8:	6c 74 20 
  402aeb:	48 89 43 30          	mov    %rax,0x30(%rbx)
  402aef:	c7 43 38 73 65 72 76 	movl   $0x76726573,0x38(%rbx)
  402af6:	66 c7 43 3c 65 72    	movw   $0x7265,0x3c(%rbx)
  402afc:	c6 43 3e 00          	movb   $0x0,0x3e(%rbx)
  402b00:	89 ef                	mov    %ebp,%edi
  402b02:	e8 39 e2 ff ff       	callq  400d40 <close@plt>
  402b07:	b8 ff ff ff ff       	mov    $0xffffffff,%eax
  402b0c:	e9 d8 00 00 00       	jmpq   402be9 <submitr+0x735>
  402b11:	44 8b 44 24 2c       	mov    0x2c(%rsp),%r8d
  402b16:	41 81 f8 c8 00 00 00 	cmp    $0xc8,%r8d
  402b1d:	74 37                	je     402b56 <submitr+0x6a2>
  402b1f:	4c 8d 8c 24 40 60 00 	lea    0x6040(%rsp),%r9
  402b26:	00 
  402b27:	b9 08 37 40 00       	mov    $0x403708,%ecx
  402b2c:	48 c7 c2 ff ff ff ff 	mov    $0xffffffffffffffff,%rdx
  402b33:	be 01 00 00 00       	mov    $0x1,%esi
  402b38:	48 89 df             	mov    %rbx,%rdi
  402b3b:	b8 00 00 00 00       	mov    $0x0,%eax
  402b40:	e8 5b e3 ff ff       	callq  400ea0 <__sprintf_chk@plt>
  402b45:	89 ef                	mov    %ebp,%edi
  402b47:	e8 f4 e1 ff ff       	callq  400d40 <close@plt>
  402b4c:	b8 ff ff ff ff       	mov    $0xffffffff,%eax
  402b51:	e9 93 00 00 00       	jmpq   402be9 <submitr+0x735>
  402b56:	48 8d 74 24 40       	lea    0x40(%rsp),%rsi
  402b5b:	48 89 df             	mov    %rbx,%rdi
  402b5e:	e8 6d e1 ff ff       	callq  400cd0 <strcpy@plt>
  402b63:	89 ef                	mov    %ebp,%edi
  402b65:	e8 d6 e1 ff ff       	callq  400d40 <close@plt>
  402b6a:	0f b6 03             	movzbl (%rbx),%eax
  402b6d:	ba 4f 00 00 00       	mov    $0x4f,%edx
  402b72:	29 c2                	sub    %eax,%edx
  402b74:	75 22                	jne    402b98 <submitr+0x6e4>
  402b76:	0f b6 4b 01          	movzbl 0x1(%rbx),%ecx
  402b7a:	b8 4b 00 00 00       	mov    $0x4b,%eax
  402b7f:	29 c8                	sub    %ecx,%eax
  402b81:	75 17                	jne    402b9a <submitr+0x6e6>
  402b83:	0f b6 4b 02          	movzbl 0x2(%rbx),%ecx
  402b87:	b8 0a 00 00 00       	mov    $0xa,%eax
  402b8c:	29 c8                	sub    %ecx,%eax
  402b8e:	75 0a                	jne    402b9a <submitr+0x6e6>
  402b90:	0f b6 43 03          	movzbl 0x3(%rbx),%eax
  402b94:	f7 d8                	neg    %eax
  402b96:	eb 02                	jmp    402b9a <submitr+0x6e6>
  402b98:	89 d0                	mov    %edx,%eax
  402b9a:	85 c0                	test   %eax,%eax
  402b9c:	74 38                	je     402bd6 <submitr+0x722>
  402b9e:	bf 50 37 40 00       	mov    $0x403750,%edi
  402ba3:	b9 05 00 00 00       	mov    $0x5,%ecx
  402ba8:	48 89 de             	mov    %rbx,%rsi
  402bab:	f3 a6                	repz cmpsb %es:(%rdi),%ds:(%rsi)
  402bad:	0f 97 c1             	seta   %cl
  402bb0:	0f 92 c0             	setb   %al
  402bb3:	38 c1                	cmp    %al,%cl
  402bb5:	74 26                	je     402bdd <submitr+0x729>
  402bb7:	85 d2                	test   %edx,%edx
  402bb9:	75 10                	jne    402bcb <submitr+0x717>
  402bbb:	0f b6 43 01          	movzbl 0x1(%rbx),%eax
  402bbf:	b2 4b                	mov    $0x4b,%dl
  402bc1:	29 c2                	sub    %eax,%edx
  402bc3:	75 06                	jne    402bcb <submitr+0x717>
  402bc5:	0f b6 53 02          	movzbl 0x2(%rbx),%edx
  402bc9:	f7 da                	neg    %edx
  402bcb:	85 d2                	test   %edx,%edx
  402bcd:	75 15                	jne    402be4 <submitr+0x730>
  402bcf:	b8 00 00 00 00       	mov    $0x0,%eax
  402bd4:	eb 13                	jmp    402be9 <submitr+0x735>
  402bd6:	b8 00 00 00 00       	mov    $0x0,%eax
  402bdb:	eb 0c                	jmp    402be9 <submitr+0x735>
  402bdd:	b8 00 00 00 00       	mov    $0x0,%eax
  402be2:	eb 05                	jmp    402be9 <submitr+0x735>
  402be4:	b8 ff ff ff ff       	mov    $0xffffffff,%eax
  402be9:	48 8b 9c 24 58 a0 00 	mov    0xa058(%rsp),%rbx
  402bf0:	00 
  402bf1:	64 48 33 1c 25 28 00 	xor    %fs:0x28,%rbx
  402bf8:	00 00 
  402bfa:	74 05                	je     402c01 <submitr+0x74d>
  402bfc:	e8 ff e0 ff ff       	callq  400d00 <__stack_chk_fail@plt>
  402c01:	48 81 c4 68 a0 00 00 	add    $0xa068,%rsp
  402c08:	5b                   	pop    %rbx
  402c09:	5d                   	pop    %rbp
  402c0a:	41 5c                	pop    %r12
  402c0c:	41 5d                	pop    %r13
  402c0e:	41 5e                	pop    %r14
  402c10:	41 5f                	pop    %r15
  402c12:	c3                   	retq   

0000000000402c13 <init_timeout>:
  402c13:	53                   	push   %rbx
  402c14:	89 fb                	mov    %edi,%ebx
  402c16:	85 ff                	test   %edi,%edi
  402c18:	74 1f                	je     402c39 <init_timeout+0x26>
  402c1a:	85 ff                	test   %edi,%edi
  402c1c:	79 05                	jns    402c23 <init_timeout+0x10>
  402c1e:	bb 00 00 00 00       	mov    $0x0,%ebx
  402c23:	be 12 22 40 00       	mov    $0x402212,%esi
  402c28:	bf 0e 00 00 00       	mov    $0xe,%edi
  402c2d:	e8 3e e1 ff ff       	callq  400d70 <signal@plt>
  402c32:	89 df                	mov    %ebx,%edi
  402c34:	e8 f7 e0 ff ff       	callq  400d30 <alarm@plt>
  402c39:	5b                   	pop    %rbx
  402c3a:	c3                   	retq   

0000000000402c3b <init_driver>:
  402c3b:	55                   	push   %rbp
  402c3c:	53                   	push   %rbx
  402c3d:	48 83 ec 28          	sub    $0x28,%rsp
  402c41:	48 89 fd             	mov    %rdi,%rbp
  402c44:	64 48 8b 04 25 28 00 	mov    %fs:0x28,%rax
  402c4b:	00 00 
  402c4d:	48 89 44 24 18       	mov    %rax,0x18(%rsp)
  402c52:	31 c0                	xor    %eax,%eax
  402c54:	be 01 00 00 00       	mov    $0x1,%esi
  402c59:	bf 0d 00 00 00       	mov    $0xd,%edi
  402c5e:	e8 0d e1 ff ff       	callq  400d70 <signal@plt>
  402c63:	be 01 00 00 00       	mov    $0x1,%esi
  402c68:	bf 1d 00 00 00       	mov    $0x1d,%edi
  402c6d:	e8 fe e0 ff ff       	callq  400d70 <signal@plt>
  402c72:	be 01 00 00 00       	mov    $0x1,%esi
  402c77:	bf 1d 00 00 00       	mov    $0x1d,%edi
  402c7c:	e8 ef e0 ff ff       	callq  400d70 <signal@plt>
  402c81:	ba 00 00 00 00       	mov    $0x0,%edx
  402c86:	be 01 00 00 00       	mov    $0x1,%esi
  402c8b:	bf 02 00 00 00       	mov    $0x2,%edi
  402c90:	e8 1b e2 ff ff       	callq  400eb0 <socket@plt>
  402c95:	89 c3                	mov    %eax,%ebx
  402c97:	85 c0                	test   %eax,%eax
  402c99:	79 4f                	jns    402cea <init_driver+0xaf>
  402c9b:	48 b8 45 72 72 6f 72 	movabs $0x43203a726f727245,%rax
  402ca2:	3a 20 43 
  402ca5:	48 89 45 00          	mov    %rax,0x0(%rbp)
  402ca9:	48 b8 6c 69 65 6e 74 	movabs $0x6e7520746e65696c,%rax
  402cb0:	20 75 6e 
  402cb3:	48 89 45 08          	mov    %rax,0x8(%rbp)
  402cb7:	48 b8 61 62 6c 65 20 	movabs $0x206f7420656c6261,%rax
  402cbe:	74 6f 20 
  402cc1:	48 89 45 10          	mov    %rax,0x10(%rbp)
  402cc5:	48 b8 63 72 65 61 74 	movabs $0x7320657461657263,%rax
  402ccc:	65 20 73 
  402ccf:	48 89 45 18          	mov    %rax,0x18(%rbp)
  402cd3:	c7 45 20 6f 63 6b 65 	movl   $0x656b636f,0x20(%rbp)
  402cda:	66 c7 45 24 74 00    	movw   $0x74,0x24(%rbp)
  402ce0:	b8 ff ff ff ff       	mov    $0xffffffff,%eax
  402ce5:	e9 28 01 00 00       	jmpq   402e12 <init_driver+0x1d7>
  402cea:	bf 55 37 40 00       	mov    $0x403755,%edi
  402cef:	e8 8c e0 ff ff       	callq  400d80 <gethostbyname@plt>
  402cf4:	48 85 c0             	test   %rax,%rax
  402cf7:	75 68                	jne    402d61 <init_driver+0x126>
  402cf9:	48 b8 45 72 72 6f 72 	movabs $0x44203a726f727245,%rax
  402d00:	3a 20 44 
  402d03:	48 89 45 00          	mov    %rax,0x0(%rbp)
  402d07:	48 b8 4e 53 20 69 73 	movabs $0x6e7520736920534e,%rax
  402d0e:	20 75 6e 
  402d11:	48 89 45 08          	mov    %rax,0x8(%rbp)
  402d15:	48 b8 61 62 6c 65 20 	movabs $0x206f7420656c6261,%rax
  402d1c:	74 6f 20 
  402d1f:	48 89 45 10          	mov    %rax,0x10(%rbp)
  402d23:	48 b8 72 65 73 6f 6c 	movabs $0x2065766c6f736572,%rax
  402d2a:	76 65 20 
  402d2d:	48 89 45 18          	mov    %rax,0x18(%rbp)
  402d31:	48 b8 73 65 72 76 65 	movabs $0x6120726576726573,%rax
  402d38:	72 20 61 
  402d3b:	48 89 45 20          	mov    %rax,0x20(%rbp)
  402d3f:	c7 45 28 64 64 72 65 	movl   $0x65726464,0x28(%rbp)
  402d46:	66 c7 45 2c 73 73    	movw   $0x7373,0x2c(%rbp)
  402d4c:	c6 45 2e 00          	movb   $0x0,0x2e(%rbp)
  402d50:	89 df                	mov    %ebx,%edi
  402d52:	e8 e9 df ff ff       	callq  400d40 <close@plt>
  402d57:	b8 ff ff ff ff       	mov    $0xffffffff,%eax
  402d5c:	e9 b1 00 00 00       	jmpq   402e12 <init_driver+0x1d7>
  402d61:	48 c7 04 24 00 00 00 	movq   $0x0,(%rsp)
  402d68:	00 
  402d69:	48 c7 44 24 08 00 00 	movq   $0x0,0x8(%rsp)
  402d70:	00 00 
  402d72:	66 c7 04 24 02 00    	movw   $0x2,(%rsp)
  402d78:	48 63 50 14          	movslq 0x14(%rax),%rdx
  402d7c:	48 8b 40 18          	mov    0x18(%rax),%rax
  402d80:	48 8b 30             	mov    (%rax),%rsi
  402d83:	48 8d 7c 24 04       	lea    0x4(%rsp),%rdi
  402d88:	b9 0c 00 00 00       	mov    $0xc,%ecx
  402d8d:	e8 fe df ff ff       	callq  400d90 <__memmove_chk@plt>
  402d92:	66 c7 44 24 02 12 f9 	movw   $0xf912,0x2(%rsp)
  402d99:	ba 10 00 00 00       	mov    $0x10,%edx
  402d9e:	48 89 e6             	mov    %rsp,%rsi
  402da1:	89 df                	mov    %ebx,%edi
  402da3:	e8 d8 e0 ff ff       	callq  400e80 <connect@plt>
  402da8:	85 c0                	test   %eax,%eax
  402daa:	79 50                	jns    402dfc <init_driver+0x1c1>
  402dac:	48 b8 45 72 72 6f 72 	movabs $0x55203a726f727245,%rax
  402db3:	3a 20 55 
  402db6:	48 89 45 00          	mov    %rax,0x0(%rbp)
  402dba:	48 b8 6e 61 62 6c 65 	movabs $0x6f7420656c62616e,%rax
  402dc1:	20 74 6f 
  402dc4:	48 89 45 08          	mov    %rax,0x8(%rbp)
  402dc8:	48 b8 20 63 6f 6e 6e 	movabs $0x7463656e6e6f6320,%rax
  402dcf:	65 63 74 
  402dd2:	48 89 45 10          	mov    %rax,0x10(%rbp)
  402dd6:	48 b8 20 74 6f 20 73 	movabs $0x76726573206f7420,%rax
  402ddd:	65 72 76 
  402de0:	48 89 45 18          	mov    %rax,0x18(%rbp)
  402de4:	66 c7 45 20 65 72    	movw   $0x7265,0x20(%rbp)
  402dea:	c6 45 22 00          	movb   $0x0,0x22(%rbp)
  402dee:	89 df                	mov    %ebx,%edi
  402df0:	e8 4b df ff ff       	callq  400d40 <close@plt>
  402df5:	b8 ff ff ff ff       	mov    $0xffffffff,%eax
  402dfa:	eb 16                	jmp    402e12 <init_driver+0x1d7>
  402dfc:	89 df                	mov    %ebx,%edi
  402dfe:	e8 3d df ff ff       	callq  400d40 <close@plt>
  402e03:	66 c7 45 00 4f 4b    	movw   $0x4b4f,0x0(%rbp)
  402e09:	c6 45 02 00          	movb   $0x0,0x2(%rbp)
  402e0d:	b8 00 00 00 00       	mov    $0x0,%eax
  402e12:	48 8b 4c 24 18       	mov    0x18(%rsp),%rcx
  402e17:	64 48 33 0c 25 28 00 	xor    %fs:0x28,%rcx
  402e1e:	00 00 
  402e20:	74 05                	je     402e27 <init_driver+0x1ec>
  402e22:	e8 d9 de ff ff       	callq  400d00 <__stack_chk_fail@plt>
  402e27:	48 83 c4 28          	add    $0x28,%rsp
  402e2b:	5b                   	pop    %rbx
  402e2c:	5d                   	pop    %rbp
  402e2d:	c3                   	retq   

0000000000402e2e <driver_post>:
  402e2e:	53                   	push   %rbx
  402e2f:	48 83 ec 10          	sub    $0x10,%rsp
  402e33:	4c 89 cb             	mov    %r9,%rbx
  402e36:	45 85 c0             	test   %r8d,%r8d
  402e39:	74 27                	je     402e62 <driver_post+0x34>
  402e3b:	48 89 ca             	mov    %rcx,%rdx
  402e3e:	be 6a 37 40 00       	mov    $0x40376a,%esi
  402e43:	bf 01 00 00 00       	mov    $0x1,%edi
  402e48:	b8 00 00 00 00       	mov    $0x0,%eax
  402e4d:	e8 ce df ff ff       	callq  400e20 <__printf_chk@plt>
  402e52:	66 c7 03 4f 4b       	movw   $0x4b4f,(%rbx)
  402e57:	c6 43 02 00          	movb   $0x0,0x2(%rbx)
  402e5b:	b8 00 00 00 00       	mov    $0x0,%eax
  402e60:	eb 39                	jmp    402e9b <driver_post+0x6d>
  402e62:	48 85 ff             	test   %rdi,%rdi
  402e65:	74 26                	je     402e8d <driver_post+0x5f>
  402e67:	80 3f 00             	cmpb   $0x0,(%rdi)
  402e6a:	74 21                	je     402e8d <driver_post+0x5f>
  402e6c:	4c 89 0c 24          	mov    %r9,(%rsp)
  402e70:	49 89 c9             	mov    %rcx,%r9
  402e73:	49 89 d0             	mov    %rdx,%r8
  402e76:	48 89 f9             	mov    %rdi,%rcx
  402e79:	48 89 f2             	mov    %rsi,%rdx
  402e7c:	be f9 12 00 00       	mov    $0x12f9,%esi
  402e81:	bf 55 37 40 00       	mov    $0x403755,%edi
  402e86:	e8 29 f6 ff ff       	callq  4024b4 <submitr>
  402e8b:	eb 0e                	jmp    402e9b <driver_post+0x6d>
  402e8d:	66 c7 03 4f 4b       	movw   $0x4b4f,(%rbx)
  402e92:	c6 43 02 00          	movb   $0x0,0x2(%rbx)
  402e96:	b8 00 00 00 00       	mov    $0x0,%eax
  402e9b:	48 83 c4 10          	add    $0x10,%rsp
  402e9f:	5b                   	pop    %rbx
  402ea0:	c3                   	retq   

0000000000402ea1 <check>:
  402ea1:	89 f8                	mov    %edi,%eax
  402ea3:	c1 e8 1c             	shr    $0x1c,%eax
  402ea6:	85 c0                	test   %eax,%eax
  402ea8:	74 1d                	je     402ec7 <check+0x26>
  402eaa:	b9 00 00 00 00       	mov    $0x0,%ecx
  402eaf:	eb 0b                	jmp    402ebc <check+0x1b>
  402eb1:	89 f8                	mov    %edi,%eax
  402eb3:	d3 e8                	shr    %cl,%eax
  402eb5:	3c 0a                	cmp    $0xa,%al
  402eb7:	74 14                	je     402ecd <check+0x2c>
  402eb9:	83 c1 08             	add    $0x8,%ecx
  402ebc:	83 f9 1f             	cmp    $0x1f,%ecx
  402ebf:	7e f0                	jle    402eb1 <check+0x10>
  402ec1:	b8 01 00 00 00       	mov    $0x1,%eax
  402ec6:	c3                   	retq   
  402ec7:	b8 00 00 00 00       	mov    $0x0,%eax
  402ecc:	c3                   	retq   
  402ecd:	b8 00 00 00 00       	mov    $0x0,%eax
  402ed2:	c3                   	retq   

0000000000402ed3 <gencookie>:
  402ed3:	53                   	push   %rbx
  402ed4:	83 c7 01             	add    $0x1,%edi
  402ed7:	e8 d4 dd ff ff       	callq  400cb0 <srandom@plt>
  402edc:	e8 ff de ff ff       	callq  400de0 <random@plt>
  402ee1:	89 c3                	mov    %eax,%ebx
  402ee3:	89 c7                	mov    %eax,%edi
  402ee5:	e8 b7 ff ff ff       	callq  402ea1 <check>
  402eea:	85 c0                	test   %eax,%eax
  402eec:	74 ee                	je     402edc <gencookie+0x9>
  402eee:	89 d8                	mov    %ebx,%eax
  402ef0:	5b                   	pop    %rbx
  402ef1:	c3                   	retq   
  402ef2:	66 2e 0f 1f 84 00 00 	nopw   %cs:0x0(%rax,%rax,1)
  402ef9:	00 00 00 
  402efc:	0f 1f 40 00          	nopl   0x0(%rax)

0000000000402f00 <__libc_csu_init>:
  402f00:	41 57                	push   %r15
  402f02:	41 89 ff             	mov    %edi,%r15d
  402f05:	41 56                	push   %r14
  402f07:	49 89 f6             	mov    %rsi,%r14
  402f0a:	41 55                	push   %r13
  402f0c:	49 89 d5             	mov    %rdx,%r13
  402f0f:	41 54                	push   %r12
  402f11:	4c 8d 25 f8 1e 20 00 	lea    0x201ef8(%rip),%r12        # 604e10 <__frame_dummy_init_array_entry>
  402f18:	55                   	push   %rbp
  402f19:	48 8d 2d f8 1e 20 00 	lea    0x201ef8(%rip),%rbp        # 604e18 <__init_array_end>
  402f20:	53                   	push   %rbx
  402f21:	4c 29 e5             	sub    %r12,%rbp
  402f24:	31 db                	xor    %ebx,%ebx
  402f26:	48 c1 fd 03          	sar    $0x3,%rbp
  402f2a:	48 83 ec 08          	sub    $0x8,%rsp
  402f2e:	e8 2d dd ff ff       	callq  400c60 <_init>
  402f33:	48 85 ed             	test   %rbp,%rbp
  402f36:	74 1e                	je     402f56 <__libc_csu_init+0x56>
  402f38:	0f 1f 84 00 00 00 00 	nopl   0x0(%rax,%rax,1)
  402f3f:	00 
  402f40:	4c 89 ea             	mov    %r13,%rdx
  402f43:	4c 89 f6             	mov    %r14,%rsi
  402f46:	44 89 ff             	mov    %r15d,%edi
  402f49:	41 ff 14 dc          	callq  *(%r12,%rbx,8)
  402f4d:	48 83 c3 01          	add    $0x1,%rbx
  402f51:	48 39 eb             	cmp    %rbp,%rbx
  402f54:	75 ea                	jne    402f40 <__libc_csu_init+0x40>
  402f56:	48 83 c4 08          	add    $0x8,%rsp
  402f5a:	5b                   	pop    %rbx
  402f5b:	5d                   	pop    %rbp
  402f5c:	41 5c                	pop    %r12
  402f5e:	41 5d                	pop    %r13
  402f60:	41 5e                	pop    %r14
  402f62:	41 5f                	pop    %r15
  402f64:	c3                   	retq   
  402f65:	66 66 2e 0f 1f 84 00 	data32 nopw %cs:0x0(%rax,%rax,1)
  402f6c:	00 00 00 00 

0000000000402f70 <__libc_csu_fini>:
  402f70:	f3 c3                	repz retq 

Disassembly of section .fini:

0000000000402f74 <_fini>:
  402f74:	48 83 ec 08          	sub    $0x8,%rsp
  402f78:	48 83 c4 08          	add    $0x8,%rsp
  402f7c:	c3                   	retq   
